
libmap.so:     file format elf64-x86-64
libmap.so
architecture: i386:x86-64, flags 0x00000150:
HAS_SYMS, DYNAMIC, D_PAGED
start address 0x0000000000004fc0

Program Header:
    LOAD off    0x0000000000000000 vaddr 0x0000000000000000 paddr 0x0000000000000000 align 2**21
         filesz 0x0000000000007978 memsz 0x0000000000007978 flags r-x
    LOAD off    0x0000000000007db0 vaddr 0x0000000000207db0 paddr 0x0000000000207db0 align 2**21
         filesz 0x0000000000000570 memsz 0x0000000000000578 flags rw-
 DYNAMIC off    0x0000000000007dd8 vaddr 0x0000000000207dd8 paddr 0x0000000000207dd8 align 2**3
         filesz 0x00000000000001e0 memsz 0x00000000000001e0 flags rw-
    NOTE off    0x00000000000001c8 vaddr 0x00000000000001c8 paddr 0x00000000000001c8 align 2**2
         filesz 0x0000000000000024 memsz 0x0000000000000024 flags r--
EH_FRAME off    0x0000000000006ae0 vaddr 0x0000000000006ae0 paddr 0x0000000000006ae0 align 2**2
         filesz 0x0000000000000284 memsz 0x0000000000000284 flags r--
   STACK off    0x0000000000000000 vaddr 0x0000000000000000 paddr 0x0000000000000000 align 2**4
         filesz 0x0000000000000000 memsz 0x0000000000000000 flags rw-
   RELRO off    0x0000000000007db0 vaddr 0x0000000000207db0 paddr 0x0000000000207db0 align 2**0
         filesz 0x0000000000000250 memsz 0x0000000000000250 flags r--

Dynamic Section:
  NEEDED               libstdc++.so.6
  NEEDED               libgcc_s.so.1
  NEEDED               libc.so.6
  INIT                 0x0000000000004990
  FINI                 0x0000000000006aac
  INIT_ARRAY           0x0000000000207db0
  INIT_ARRAYSZ         0x0000000000000018
  FINI_ARRAY           0x0000000000207dc8
  FINI_ARRAYSZ         0x0000000000000008
  GNU_HASH             0x00000000000001f0
  STRTAB               0x00000000000010e0
  SYMTAB               0x00000000000004c8
  STRSZ                0x0000000000002cce
  SYMENT               0x0000000000000018
  PLTGOT               0x0000000000208000
  PLTRELSZ             0x00000000000008e8
  PLTREL               0x0000000000000007
  JMPREL               0x00000000000040a8
  RELA                 0x0000000000003f40
  RELASZ               0x0000000000000168
  RELAENT              0x0000000000000018
  VERNEED              0x0000000000003eb0
  VERNEEDNUM           0x0000000000000003
  VERSYM               0x0000000000003dae
  RELACOUNT            0x0000000000000005

Version References:
  required from libgcc_s.so.1:
    0x0b792650 0x00 07 GCC_3.0
  required from libc.so.6:
    0x0d696914 0x00 06 GLIBC_2.4
    0x09691a75 0x00 04 GLIBC_2.2.5
  required from libstdc++.so.6:
    0x0297f871 0x00 05 GLIBCXX_3.4.21
    0x056bafd3 0x00 03 CXXABI_1.3
    0x08922974 0x00 02 GLIBCXX_3.4

Sections:
Idx Name          Size      VMA               LMA               File off  Algn
  0 .note.gnu.build-id 00000024  00000000000001c8  00000000000001c8  000001c8  2**2
                  CONTENTS, ALLOC, LOAD, READONLY, DATA
  1 .gnu.hash     000002d4  00000000000001f0  00000000000001f0  000001f0  2**3
                  CONTENTS, ALLOC, LOAD, READONLY, DATA
  2 .dynsym       00000c18  00000000000004c8  00000000000004c8  000004c8  2**3
                  CONTENTS, ALLOC, LOAD, READONLY, DATA
  3 .dynstr       00002cce  00000000000010e0  00000000000010e0  000010e0  2**0
                  CONTENTS, ALLOC, LOAD, READONLY, DATA
  4 .gnu.version  00000102  0000000000003dae  0000000000003dae  00003dae  2**1
                  CONTENTS, ALLOC, LOAD, READONLY, DATA
  5 .gnu.version_r 00000090  0000000000003eb0  0000000000003eb0  00003eb0  2**3
                  CONTENTS, ALLOC, LOAD, READONLY, DATA
  6 .rela.dyn     00000168  0000000000003f40  0000000000003f40  00003f40  2**3
                  CONTENTS, ALLOC, LOAD, READONLY, DATA
  7 .rela.plt     000008e8  00000000000040a8  00000000000040a8  000040a8  2**3
                  CONTENTS, ALLOC, LOAD, READONLY, DATA
  8 .init         0000001a  0000000000004990  0000000000004990  00004990  2**2
                  CONTENTS, ALLOC, LOAD, READONLY, CODE
  9 .plt          00000600  00000000000049b0  00000000000049b0  000049b0  2**4
                  CONTENTS, ALLOC, LOAD, READONLY, CODE
 10 .plt.got      00000010  0000000000004fb0  0000000000004fb0  00004fb0  2**3
                  CONTENTS, ALLOC, LOAD, READONLY, CODE
 11 .text         00001ae9  0000000000004fc0  0000000000004fc0  00004fc0  2**4
                  CONTENTS, ALLOC, LOAD, READONLY, CODE
 12 .fini         00000009  0000000000006aac  0000000000006aac  00006aac  2**2
                  CONTENTS, ALLOC, LOAD, READONLY, CODE
 13 .rodata       0000002b  0000000000006ab5  0000000000006ab5  00006ab5  2**0
                  CONTENTS, ALLOC, LOAD, READONLY, DATA
 14 .eh_frame_hdr 00000284  0000000000006ae0  0000000000006ae0  00006ae0  2**2
                  CONTENTS, ALLOC, LOAD, READONLY, DATA
 15 .eh_frame     00000aa4  0000000000006d68  0000000000006d68  00006d68  2**3
                  CONTENTS, ALLOC, LOAD, READONLY, DATA
 16 .gcc_except_table 0000016c  000000000000780c  000000000000780c  0000780c  2**2
                  CONTENTS, ALLOC, LOAD, READONLY, DATA
 17 .init_array   00000018  0000000000207db0  0000000000207db0  00007db0  2**3
                  CONTENTS, ALLOC, LOAD, DATA
 18 .fini_array   00000008  0000000000207dc8  0000000000207dc8  00007dc8  2**3
                  CONTENTS, ALLOC, LOAD, DATA
 19 .jcr          00000008  0000000000207dd0  0000000000207dd0  00007dd0  2**3
                  CONTENTS, ALLOC, LOAD, DATA
 20 .dynamic      000001e0  0000000000207dd8  0000000000207dd8  00007dd8  2**3
                  CONTENTS, ALLOC, LOAD, DATA
 21 .got          00000048  0000000000207fb8  0000000000207fb8  00007fb8  2**3
                  CONTENTS, ALLOC, LOAD, DATA
 22 .got.plt      00000310  0000000000208000  0000000000208000  00008000  2**3
                  CONTENTS, ALLOC, LOAD, DATA
 23 .data         00000010  0000000000208310  0000000000208310  00008310  2**3
                  CONTENTS, ALLOC, LOAD, DATA
 24 .bss          00000008  0000000000208320  0000000000208320  00008320  2**0
                  ALLOC
 25 .comment      00000035  0000000000000000  0000000000000000  00008320  2**0
                  CONTENTS, READONLY
SYMBOL TABLE:
00000000000001c8 l    d  .note.gnu.build-id	0000000000000000              .note.gnu.build-id
00000000000001f0 l    d  .gnu.hash	0000000000000000              .gnu.hash
00000000000004c8 l    d  .dynsym	0000000000000000              .dynsym
00000000000010e0 l    d  .dynstr	0000000000000000              .dynstr
0000000000003dae l    d  .gnu.version	0000000000000000              .gnu.version
0000000000003eb0 l    d  .gnu.version_r	0000000000000000              .gnu.version_r
0000000000003f40 l    d  .rela.dyn	0000000000000000              .rela.dyn
00000000000040a8 l    d  .rela.plt	0000000000000000              .rela.plt
0000000000004990 l    d  .init	0000000000000000              .init
00000000000049b0 l    d  .plt	0000000000000000              .plt
0000000000004fb0 l    d  .plt.got	0000000000000000              .plt.got
0000000000004fc0 l    d  .text	0000000000000000              .text
0000000000006aac l    d  .fini	0000000000000000              .fini
0000000000006ab5 l    d  .rodata	0000000000000000              .rodata
0000000000006ae0 l    d  .eh_frame_hdr	0000000000000000              .eh_frame_hdr
0000000000006d68 l    d  .eh_frame	0000000000000000              .eh_frame
000000000000780c l    d  .gcc_except_table	0000000000000000              .gcc_except_table
0000000000207db0 l    d  .init_array	0000000000000000              .init_array
0000000000207dc8 l    d  .fini_array	0000000000000000              .fini_array
0000000000207dd0 l    d  .jcr	0000000000000000              .jcr
0000000000207dd8 l    d  .dynamic	0000000000000000              .dynamic
0000000000207fb8 l    d  .got	0000000000000000              .got
0000000000208000 l    d  .got.plt	0000000000000000              .got.plt
0000000000208310 l    d  .data	0000000000000000              .data
0000000000208320 l    d  .bss	0000000000000000              .bss
0000000000000000 l    d  .comment	0000000000000000              .comment
0000000000000000 l    df *ABS*	0000000000000000              crtstuff.c
0000000000207dd0 l     O .jcr	0000000000000000              __JCR_LIST__
0000000000004fc0 l     F .text	0000000000000000              deregister_tm_clones
0000000000005000 l     F .text	0000000000000000              register_tm_clones
0000000000005050 l     F .text	0000000000000000              __do_global_dtors_aux
0000000000208320 l     O .bss	0000000000000001              completed.7594
0000000000207dc8 l     O .fini_array	0000000000000000              __do_global_dtors_aux_fini_array_entry
0000000000005090 l     F .text	0000000000000000              frame_dummy
0000000000207db0 l     O .init_array	0000000000000000              __frame_dummy_init_array_entry
0000000000000000 l    df *ABS*	0000000000000000              get.cpp
0000000000208321 l     O .bss	0000000000000001              _ZStL8__ioinit
00000000000051ba l     F .text	0000000000000049              _Z41__static_initialization_and_destruction_0ii
0000000000005203 l     F .text	0000000000000015              _GLOBAL__sub_I_get.cpp
0000000000000000 l    df *ABS*	0000000000000000              open.cpp
0000000000208322 l     O .bss	0000000000000001              _ZStL8__ioinit
00000000000067b7 l     F .text	0000000000000049              _Z41__static_initialization_and_destruction_0ii
0000000000006800 l     F .text	0000000000000015              _GLOBAL__sub_I_open.cpp
0000000000000000 l    df *ABS*	0000000000000000              crtstuff.c
0000000000007808 l     O .eh_frame	0000000000000000              __FRAME_END__
0000000000207dd0 l     O .jcr	0000000000000000              __JCR_END__
0000000000000000 l    df *ABS*	0000000000000000              
0000000000208318 l     O .data	0000000000000008              DW.ref.__gxx_personality_v0
0000000000006ae0 l       .eh_frame_hdr	0000000000000000              __GNU_EH_FRAME_HDR
0000000000208000 l     O .got.plt	0000000000000000              _GLOBAL_OFFSET_TABLE_
0000000000208320 l     O .data	0000000000000000              __TMC_END__
0000000000208310 l     O .data	0000000000000000              __dso_handle
0000000000207dd8 l     O .dynamic	0000000000000000              _DYNAMIC
0000000000005476  w    F .text	000000000000001a              _ZNSt3mapINSt7__cxx1112basic_stringIcSt11char_traitsIcESaIcEEES5_St4lessIS5_ESaISt4pairIKS5_S5_EEE3endEv
00000000000061a6  w    F .text	000000000000001e              _ZNKSt13_Rb_tree_nodeISt4pairIKNSt7__cxx1112basic_stringIcSt11char_traitsIcESaIcEEES6_EE9_M_valptrEv
000000000000691c  w    F .text	0000000000000062              _ZNSt4pairINSt7__cxx1112basic_stringIcSt11char_traitsIcESaIcEEES5_EC1ERKS5_S8_
0000000000005770  w    F .text	00000000000000b0              _ZNSt8_Rb_treeINSt7__cxx1112basic_stringIcSt11char_traitsIcESaIcEEESt4pairIKS5_S5_ESt10_Select1stIS8_ESt4lessIS5_ESaIS8_EE14_M_lower_boundEPSt13_Rb_tree_nodeIS8_ESH_RS7_
000000000000523a  w    F .text	000000000000004c              _ZNSt4pairIKNSt7__cxx1112basic_stringIcSt11char_traitsIcESaIcEEES5_ED2Ev
00000000000063f0  w    F .text	0000000000000062              _ZNSt4pairIKNSt7__cxx1112basic_stringIcSt11char_traitsIcESaIcEEES5_EC2ERKS7_
00000000000068f6  w    F .text	0000000000000025              _ZNSt3mapINSt7__cxx1112basic_stringIcSt11char_traitsIcESaIcEEES5_St4lessIS5_ESaISt4pairIKS5_S5_EEE6insertERKSA_
0000000000005862  w    F .text	00000000000000af              _ZNSt8_Rb_treeINSt7__cxx1112basic_stringIcSt11char_traitsIcESaIcEEESt4pairIKS5_S5_ESt10_Select1stIS8_ESt4lessIS5_ESaIS8_EE17_M_insert_unique_INSE_11_Alloc_nodeEEESt17_Rb_tree_iteratorIS8_ESt23_Rb_tree_const_iteratorIS8_ERKS8_RT_
0000000000006a7a  w    F .text	000000000000002f              _ZNSt4pairISt17_Rb_tree_iteratorIS_IKNSt7__cxx1112basic_stringIcSt11char_traitsIcESaIcEEES6_EEbEC2ERKS9_RKb
0000000000005ebe  w    F .text	0000000000000012              _ZNKSt8_Rb_treeINSt7__cxx1112basic_stringIcSt11char_traitsIcESaIcEEESt4pairIKS5_S5_ESt10_Select1stIS8_ESt4lessIS5_ESaIS8_EE4sizeEv
0000000000006816  w    F .text	000000000000004c              _ZNSt4pairINSt7__cxx1112basic_stringIcSt11char_traitsIcESaIcEEES5_ED2Ev
000000000000629e  w    F .text	00000000000000ca              _ZNSt8_Rb_treeINSt7__cxx1112basic_stringIcSt11char_traitsIcESaIcEEESt4pairIKS5_S5_ESt10_Select1stIS8_ESt4lessIS5_ESaIS8_EE17_M_construct_nodeEPSt13_Rb_tree_nodeIS8_ERKS8_
0000000000000000  w      *UND*	0000000000000000              __gmon_start__
0000000000000000  w      *UND*	0000000000000000              _Jv_RegisterClasses
0000000000000000       F *UND*	0000000000000000              _ZdlPv@@GLIBCXX_3.4
00000000000056ca  w    F .text	000000000000001d              _ZNSt23_Rb_tree_const_iteratorISt4pairIKNSt7__cxx1112basic_stringIcSt11char_traitsIcESaIcEEES6_EEC2ERKSt17_Rb_tree_iteratorIS8_E
00000000000054b2  w    F .text	0000000000000022              _ZNKSt3mapINSt7__cxx1112basic_stringIcSt11char_traitsIcESaIcEEES5_St4lessIS5_ESaISt4pairIKS5_S5_EEE8key_compEv
000000000000574c  w    F .text	0000000000000012              _ZNSt8_Rb_treeINSt7__cxx1112basic_stringIcSt11char_traitsIcESaIcEEESt4pairIKS5_S5_ESt10_Select1stIS8_ESt4lessIS5_ESaIS8_EE8_M_beginEv
0000000000006aac g     F .fini	0000000000000000              _fini
0000000000000000       F *UND*	0000000000000000              __cxa_rethrow@@CXXABI_1.3
000000000000697e  w    F .text	00000000000000fc              _ZNSt8_Rb_treeINSt7__cxx1112basic_stringIcSt11char_traitsIcESaIcEEESt4pairIKS5_S5_ESt10_Select1stIS8_ESt4lessIS5_ESaIS8_EE16_M_insert_uniqueERKS8_
0000000000000000       F *UND*	0000000000000000              _ZNSt8ios_base4InitC1Ev@@GLIBCXX_3.4
000000000000557e  w    F .text	0000000000000063              _ZNSt3mapINSt7__cxx1112basic_stringIcSt11char_traitsIcESaIcEEES5_St4lessIS5_ESaISt4pairIKS5_S5_EEE6insertESt17_Rb_tree_iteratorISA_ERKSA_
00000000000065b8  w    F .text	000000000000000b              _ZN9__gnu_cxx13new_allocatorISt4pairIKNSt7__cxx1112basic_stringIcSt11char_traitsIcESaIcEEES7_EEC2Ev
0000000000000000       F *UND*	0000000000000000              _ZSt18_Rb_tree_decrementPSt18_Rb_tree_node_base@@GLIBCXX_3.4
0000000000005820  w    F .text	000000000000001a              _ZNSt17_Rb_tree_iteratorISt4pairIKNSt7__cxx1112basic_stringIcSt11char_traitsIcESaIcEEES6_EEC1EPSt18_Rb_tree_node_base
00000000000065c4  w    F .text	0000000000000023              _ZN9__gnu_cxx13new_allocatorISt13_Rb_tree_nodeISt4pairIKNSt7__cxx1112basic_stringIcSt11char_traitsIcESaIcEEES8_EEE10deallocateEPSB_m
0000000000000000       F *UND*	0000000000000000              __cxa_atexit@@GLIBC_2.2.5
0000000000005218  w    F .text	0000000000000012              _ZnwmPv
0000000000005d32  w    F .text	0000000000000125              _ZNSt8_Rb_treeINSt7__cxx1112basic_stringIcSt11char_traitsIcESaIcEEESt4pairIKS5_S5_ESt10_Select1stIS8_ESt4lessIS5_ESaIS8_EE10_M_insert_INSE_11_Alloc_nodeEEESt17_Rb_tree_iteratorIS8_EPSt18_Rb_tree_node_baseSK_RKS8_RT_
0000000000005848  w    F .text	000000000000001a              _ZNSt8_Rb_treeINSt7__cxx1112basic_stringIcSt11char_traitsIcESaIcEEESt4pairIKS5_S5_ESt10_Select1stIS8_ESt4lessIS5_ESaIS8_EE11_Alloc_nodeC2ERSE_
0000000000005972  w    F .text	0000000000000012              _ZNSt8_Rb_treeINSt7__cxx1112basic_stringIcSt11char_traitsIcESaIcEEESt4pairIKS5_S5_ESt10_Select1stIS8_ESt4lessIS5_ESaIS8_EE8_S_rightEPSt18_Rb_tree_node_base
0000000000000000       F *UND*	0000000000000000              _ZNSt8ios_base4InitD1Ev@@GLIBCXX_3.4
0000000000000000  w      *UND*	0000000000000000              _ITM_deregisterTMCloneTable
0000000000006575  w    F .text	000000000000002e              _ZN9__gnu_cxx14__alloc_traitsISaISt13_Rb_tree_nodeISt4pairIKNSt7__cxx1112basic_stringIcSt11char_traitsIcESaIcEEES8_EEEE10deallocateERSC_PSB_m
0000000000000000       F *UND*	0000000000000000              _ZStlsISt11char_traitsIcEERSt13basic_ostreamIcT_ES5_PKc@@GLIBCXX_3.4
000000000000654a  w    F .text	000000000000001f              _ZNSaISt4pairIKNSt7__cxx1112basic_stringIcSt11char_traitsIcESaIcEEES5_EEC2ISt13_Rb_tree_nodeIS7_EEERKSaIT_E
0000000000006392  w    F .text	000000000000000e              _ZNSt8_Rb_treeINSt7__cxx1112basic_stringIcSt11char_traitsIcESaIcEEESt4pairIKS5_S5_ESt10_Select1stIS8_ESt4lessIS5_ESaIS8_EE21_M_get_Node_allocatorEv
0000000000000000       F *UND*	0000000000000000              _ZNSt7__cxx1112basic_stringIcSt11char_traitsIcESaIcEEC1Ev@@GLIBCXX_3.4.21
000000000000653c  w    F .text	000000000000000e              _ZNKSt8_Rb_treeINSt7__cxx1112basic_stringIcSt11char_traitsIcESaIcEEESt4pairIKS5_S5_ESt10_Select1stIS8_ESt4lessIS5_ESaIS8_EE21_M_get_Node_allocatorEv
000000000000656a  w    F .text	000000000000000b              _ZN9__gnu_cxx13new_allocatorISt4pairIKNSt7__cxx1112basic_stringIcSt11char_traitsIcESaIcEEES7_EED1Ev
000000000000575e  w    F .text	0000000000000012              _ZNSt8_Rb_treeINSt7__cxx1112basic_stringIcSt11char_traitsIcESaIcEEESt4pairIKS5_S5_ESt10_Select1stIS8_ESt4lessIS5_ESaIS8_EE6_M_endEv
0000000000006152  w    F .text	000000000000002b              _ZNSt17_Rb_tree_iteratorISt4pairIKNSt7__cxx1112basic_stringIcSt11char_traitsIcESaIcEEES6_EEppEv
00000000000061c4  w    F .text	000000000000001a              _ZNSt8_Rb_treeINSt7__cxx1112basic_stringIcSt11char_traitsIcESaIcEEESt4pairIKS5_S5_ESt10_Select1stIS8_ESt4lessIS5_ESaIS8_EE8_S_valueEPKSt18_Rb_tree_node_base
0000000000000000  w      *UND*	0000000000000000              _ITM_registerTMCloneTable
0000000000000000       F *UND*	0000000000000000              _ZNSt7__cxx1112basic_stringIcSt11char_traitsIcESaIcEED1Ev@@GLIBCXX_3.4.21
00000000000050c0 g     F .text	00000000000000fa              _Z3getNSt7__cxx1112basic_stringIcSt11char_traitsIcESaIcEEEPi
0000000000000000       F *UND*	0000000000000000              _ZNKSt7__cxx1112basic_stringIcSt11char_traitsIcESaIcEE7compareERKS4_@@GLIBCXX_3.4.21
0000000000005911  w    F .text	000000000000004f              _ZNSt8_Rb_treeINSt7__cxx1112basic_stringIcSt11char_traitsIcESaIcEEESt4pairIKS5_S5_ESt10_Select1stIS8_ESt4lessIS5_ESaIS8_EE6_S_keyEPKSt13_Rb_tree_nodeIS8_E
0000000000005490  w    F .text	0000000000000022              _ZNKSt17_Rb_tree_iteratorISt4pairIKNSt7__cxx1112basic_stringIcSt11char_traitsIcESaIcEEES6_EEeqERKS9_
000000000000567a  w    F .text	000000000000000a              _ZNKSt8_Rb_treeINSt7__cxx1112basic_stringIcSt11char_traitsIcESaIcEEESt4pairIKS5_S5_ESt10_Select1stIS8_ESt4lessIS5_ESaIS8_EE8key_compEv
0000000000005848  w    F .text	000000000000001a              _ZNSt8_Rb_treeINSt7__cxx1112basic_stringIcSt11char_traitsIcESaIcEEESt4pairIKS5_S5_ESt10_Select1stIS8_ESt4lessIS5_ESaIS8_EE11_Alloc_nodeC1ERSE_
0000000000000000  w    F *UND*	0000000000000000              __cxa_finalize@@GLIBC_2.2.5
00000000000064ba  w    F .text	0000000000000036              _ZNSt8_Rb_treeINSt7__cxx1112basic_stringIcSt11char_traitsIcESaIcEEESt4pairIKS5_S5_ESt10_Select1stIS8_ESt4lessIS5_ESaIS8_EE11_M_put_nodeEPSt13_Rb_tree_nodeIS8_E
0000000000005e72  w    F .text	000000000000004b              _ZNKSt23_Rb_tree_const_iteratorISt4pairIKNSt7__cxx1112basic_stringIcSt11char_traitsIcESaIcEEES6_EE13_M_const_castEv
00000000000063f0  w    F .text	0000000000000062              _ZNSt4pairIKNSt7__cxx1112basic_stringIcSt11char_traitsIcESaIcEEES5_EC1ERKS7_
00000000000056ca  w    F .text	000000000000001d              _ZNSt23_Rb_tree_const_iteratorISt4pairIKNSt7__cxx1112basic_stringIcSt11char_traitsIcESaIcEEES6_EEC1ERKSt17_Rb_tree_iteratorIS8_E
000000000000562e  w    F .text	000000000000004c              _ZNSt8_Rb_treeINSt7__cxx1112basic_stringIcSt11char_traitsIcESaIcEEESt4pairIKS5_S5_ESt10_Select1stIS8_ESt4lessIS5_ESaIS8_EE3endEv
0000000000005820  w    F .text	000000000000001a              _ZNSt17_Rb_tree_iteratorISt4pairIKNSt7__cxx1112basic_stringIcSt11char_traitsIcESaIcEEES6_EEC2EPSt18_Rb_tree_node_base
000000000000622a  w    F .text	000000000000003d              _ZNSt8_Rb_treeINSt7__cxx1112basic_stringIcSt11char_traitsIcESaIcEEESt4pairIKS5_S5_ESt10_Select1stIS8_ESt4lessIS5_ESaIS8_EE14_M_create_nodeERKS8_
0000000000006452  w    F .text	0000000000000068              _ZN9__gnu_cxx13new_allocatorISt4pairIKNSt7__cxx1112basic_stringIcSt11char_traitsIcESaIcEEES7_EE9constructEPS9_RKS9_
00000000000061de  w    F .text	000000000000004c              _ZNSt8_Rb_treeINSt7__cxx1112basic_stringIcSt11char_traitsIcESaIcEEESt4pairIKS5_S5_ESt10_Select1stIS8_ESt4lessIS5_ESaIS8_EE5beginEv
0000000000000000         *UND*	0000000000000000              _Z1mB5cxx11
0000000000000000       O *UND*	0000000000000000              _ZSt4cout@@GLIBCXX_3.4
000000000000617e  w    F .text	0000000000000028              _ZNKSt8_Rb_treeINSt7__cxx1112basic_stringIcSt11char_traitsIcESaIcEEESt4pairIKS5_S5_ESt10_Select1stIS8_ESt4lessIS5_ESaIS8_EE11_Alloc_nodeclIS8_EEPSt13_Rb_tree_nodeIS8_ERKT_
00000000000056e8  w    F .text	0000000000000064              _ZNSt8_Rb_treeINSt7__cxx1112basic_stringIcSt11char_traitsIcESaIcEEESt4pairIKS5_S5_ESt10_Select1stIS8_ESt4lessIS5_ESaIS8_EE17_M_insert_unique_ESt23_Rb_tree_const_iteratorIS8_ERKS8_
0000000000005286  w    F .text	00000000000001ca              _ZNSt3mapINSt7__cxx1112basic_stringIcSt11char_traitsIcESaIcEEES5_St4lessIS5_ESaISt4pairIKS5_S5_EEEixERS9_
0000000000005684  w    F .text	000000000000001e              _ZNSt13_Rb_tree_nodeISt4pairIKNSt7__cxx1112basic_stringIcSt11char_traitsIcESaIcEEES6_EE9_M_valptrEv
0000000000006276  w    F .text	0000000000000027              _ZNSt8_Rb_treeINSt7__cxx1112basic_stringIcSt11char_traitsIcESaIcEEESt4pairIKS5_S5_ESt10_Select1stIS8_ESt4lessIS5_ESaIS8_EE11_M_get_nodeEv
00000000000063d4  w    F .text	000000000000001b              _ZNSaISt4pairIKNSt7__cxx1112basic_stringIcSt11char_traitsIcESaIcEEES5_EED1Ev
000000000000656a  w    F .text	000000000000000b              _ZN9__gnu_cxx13new_allocatorISt4pairIKNSt7__cxx1112basic_stringIcSt11char_traitsIcESaIcEEES7_EED2Ev
00000000000064f0  w    F .text	000000000000004b              _ZN9__gnu_cxx13new_allocatorISt13_Rb_tree_nodeISt4pairIKNSt7__cxx1112basic_stringIcSt11char_traitsIcESaIcEEES8_EEE8allocateEmPKv
0000000000006816  w    F .text	000000000000004c              _ZNSt4pairINSt7__cxx1112basic_stringIcSt11char_traitsIcESaIcEEES5_ED1Ev
0000000000006267  w    F .text	000000000000000e              _ZSt11__addressofIKSt4pairIKNSt7__cxx1112basic_stringIcSt11char_traitsIcESaIcEEES6_EEPT_RSA_
00000000000055e2  w    F .text	000000000000004c              _ZNSt8_Rb_treeINSt7__cxx1112basic_stringIcSt11char_traitsIcESaIcEEESt4pairIKS5_S5_ESt10_Select1stIS8_ESt4lessIS5_ESaIS8_EE11lower_boundERS7_
0000000000005d20  w    F .text	0000000000000012              _ZNKSt10_Select1stISt4pairIKNSt7__cxx1112basic_stringIcSt11char_traitsIcESaIcEEES6_EEclERKS8_
00000000000054d4  w    F .text	000000000000001d              _ZNKSt17_Rb_tree_iteratorISt4pairIKNSt7__cxx1112basic_stringIcSt11char_traitsIcESaIcEEES6_EEdeEv
0000000000006368  w    F .text	000000000000002a              _ZN9__gnu_cxx14__alloc_traitsISaISt13_Rb_tree_nodeISt4pairIKNSt7__cxx1112basic_stringIcSt11char_traitsIcESaIcEEES8_EEEE8allocateERSC_m
0000000000005960  w    F .text	0000000000000012              _ZNSt8_Rb_treeINSt7__cxx1112basic_stringIcSt11char_traitsIcESaIcEEESt4pairIKS5_S5_ESt10_Select1stIS8_ESt4lessIS5_ESaIS8_EE7_S_leftEPSt18_Rb_tree_node_base
0000000000208320 g       .bss	0000000000000000              __bss_start
0000000000000000       F *UND*	0000000000000000              _ZSt29_Rb_tree_insert_and_rebalancebPSt18_Rb_tree_node_baseS0_RS_@@GLIBCXX_3.4
00000000000056a2  w    F .text	0000000000000028              _ZStltIcSt11char_traitsIcESaIcEEbRKNSt7__cxx1112basic_stringIT_T0_T1_EESA_
000000000000551c  w    F .text	0000000000000062              _ZNSt4pairIKNSt7__cxx1112basic_stringIcSt11char_traitsIcESaIcEEES5_EC1ERS6_S8_
000000000000523a  w    F .text	000000000000004c              _ZNSt4pairIKNSt7__cxx1112basic_stringIcSt11char_traitsIcESaIcEEES5_ED1Ev
0000000000000000       F *UND*	0000000000000000              __stack_chk_fail@@GLIBC_2.4
000000000000691c  w    F .text	0000000000000062              _ZNSt4pairINSt7__cxx1112basic_stringIcSt11char_traitsIcESaIcEEES5_EC2ERKS5_S8_
0000000000005e57  w    F .text	000000000000001a              _ZNSt8_Rb_treeINSt7__cxx1112basic_stringIcSt11char_traitsIcESaIcEEESt4pairIKS5_S5_ESt10_Select1stIS8_ESt4lessIS5_ESaIS8_EE8_S_valueEPKSt13_Rb_tree_nodeIS8_E
000000000000654a  w    F .text	000000000000001f              _ZNSaISt4pairIKNSt7__cxx1112basic_stringIcSt11char_traitsIcESaIcEEES5_EEC1ISt13_Rb_tree_nodeIS7_EEERKSaIT_E
0000000000000000       F *UND*	0000000000000000              _ZNSaIcED1Ev@@GLIBCXX_3.4
000000000000551c  w    F .text	0000000000000062              _ZNSt4pairIKNSt7__cxx1112basic_stringIcSt11char_traitsIcESaIcEEES5_EC2ERS6_S8_
0000000000006114  w    F .text	0000000000000012              _ZNSt8_Rb_treeINSt7__cxx1112basic_stringIcSt11char_traitsIcESaIcEEESt4pairIKS5_S5_ESt10_Select1stIS8_ESt4lessIS5_ESaIS8_EE11_M_leftmostEv
000000000000583a  w    F .text	000000000000000e              _ZSt11__addressofISt4pairIKNSt7__cxx1112basic_stringIcSt11char_traitsIcESaIcEEES6_EEPT_RS9_
0000000000005f32  w    F .text	0000000000000030              _ZNSt4pairIPSt18_Rb_tree_node_baseS1_EC1ERKS1_S4_
0000000000000000       F *UND*	0000000000000000              _ZNKSt7__cxx1112basic_stringIcSt11char_traitsIcESaIcEE4sizeEv@@GLIBCXX_3.4.21
0000000000005f62  w    F .text	00000000000001b1              _ZNSt8_Rb_treeINSt7__cxx1112basic_stringIcSt11char_traitsIcESaIcEEESt4pairIKS5_S5_ESt10_Select1stIS8_ESt4lessIS5_ESaIS8_EE24_M_get_insert_unique_posERS7_
0000000000005f32  w    F .text	0000000000000030              _ZNSt4pairIPSt18_Rb_tree_node_baseS1_EC2ERKS1_S4_
00000000000065e7 g     F .text	00000000000001d0              _Z3putNSt7__cxx1112basic_stringIcSt11char_traitsIcESaIcEEES4_i
0000000000208328 g       .bss	0000000000000000              _end
0000000000000000       F *UND*	0000000000000000              _ZNSolsEPFRSoS_E@@GLIBCXX_3.4
0000000000006894  w    F .text	0000000000000062              _ZNSt4pairIKNSt7__cxx1112basic_stringIcSt11char_traitsIcESaIcEEES5_EC1IS5_S5_EERKS_IT_T0_E
00000000000065a4  w    F .text	0000000000000014              _ZNK9__gnu_cxx13new_allocatorISt13_Rb_tree_nodeISt4pairIKNSt7__cxx1112basic_stringIcSt11char_traitsIcESaIcEEES8_EEE8max_sizeEv
0000000000005ed0  w    F .text	0000000000000012              _ZNSt8_Rb_treeINSt7__cxx1112basic_stringIcSt11char_traitsIcESaIcEEESt4pairIKS5_S5_ESt10_Select1stIS8_ESt4lessIS5_ESaIS8_EE12_M_rightmostEv
0000000000000000       F *UND*	0000000000000000              _ZSt18_Rb_tree_incrementPSt18_Rb_tree_node_base@@GLIBCXX_3.4
0000000000000000       F *UND*	0000000000000000              __cxa_end_catch@@CXXABI_1.3
0000000000000000       F *UND*	0000000000000000              _ZSt17__throw_bad_allocv@@GLIBCXX_3.4
00000000000063a0  w    F .text	0000000000000034              _ZNKSt8_Rb_treeINSt7__cxx1112basic_stringIcSt11char_traitsIcESaIcEEESt4pairIKS5_S5_ESt10_Select1stIS8_ESt4lessIS5_ESaIS8_EE13get_allocatorEv
00000000000065b8  w    F .text	000000000000000b              _ZN9__gnu_cxx13new_allocatorISt4pairIKNSt7__cxx1112basic_stringIcSt11char_traitsIcESaIcEEES7_EEC1Ev
0000000000000000       F *UND*	0000000000000000              _ZSt4endlIcSt11char_traitsIcEERSt13basic_ostreamIT_T0_ES6_@@GLIBCXX_3.4
0000000000006a7a  w    F .text	000000000000002f              _ZNSt4pairISt17_Rb_tree_iteratorIS_IKNSt7__cxx1112basic_stringIcSt11char_traitsIcESaIcEEES6_EEbEC1ERKS9_RKb
0000000000000000       F *UND*	0000000000000000              __cxa_begin_catch@@CXXABI_1.3
0000000000006862  w    F .text	0000000000000031              _ZSt9make_pairINSt7__cxx1112basic_stringIcSt11char_traitsIcESaIcEEES5_ESt4pairIT_T0_ES7_S8_
0000000000006126  w    F .text	000000000000002b              _ZNSt17_Rb_tree_iteratorISt4pairIKNSt7__cxx1112basic_stringIcSt11char_traitsIcESaIcEEES6_EEmmEv
0000000000000000       F *UND*	0000000000000000              _ZNSt7__cxx1112basic_stringIcSt11char_traitsIcESaIcEEC1ERKS4_@@GLIBCXX_3.4.21
0000000000000000       F *UND*	0000000000000000              _ZNSt7__cxx1112basic_stringIcSt11char_traitsIcESaIcEEC1EPKcRKS3_@@GLIBCXX_3.4.21
0000000000208320 g       .data	0000000000000000              _edata
00000000000054f2  w    F .text	0000000000000029              _ZNKSt4lessINSt7__cxx1112basic_stringIcSt11char_traitsIcESaIcEEEEclERKS5_S8_
0000000000000000       F *UND*	0000000000000000              _ZNSaIcEC1Ev@@GLIBCXX_3.4
000000000000522a  w    F .text	000000000000000f              _ZdlPvS_
0000000000005984  w    F .text	000000000000039c              _ZNSt8_Rb_treeINSt7__cxx1112basic_stringIcSt11char_traitsIcESaIcEEESt4pairIKS5_S5_ESt10_Select1stIS8_ESt4lessIS5_ESaIS8_EE29_M_get_insert_hint_unique_posESt23_Rb_tree_const_iteratorIS8_ERS7_
0000000000000000       F *UND*	0000000000000000              __gxx_personality_v0@@CXXABI_1.3
0000000000000000       F *UND*	0000000000000000              _Znwm@@GLIBCXX_3.4
0000000000005450  w    F .text	0000000000000025              _ZNSt3mapINSt7__cxx1112basic_stringIcSt11char_traitsIcESaIcEEES5_St4lessIS5_ESaISt4pairIKS5_S5_EEE11lower_boundERS9_
0000000000000000       F *UND*	0000000000000000              _Unwind_Resume@@GCC_3.0
0000000000005ee2  w    F .text	000000000000004f              _ZNSt8_Rb_treeINSt7__cxx1112basic_stringIcSt11char_traitsIcESaIcEEESt4pairIKS5_S5_ESt10_Select1stIS8_ESt4lessIS5_ESaIS8_EE6_S_keyEPKSt18_Rb_tree_node_base
00000000000063d4  w    F .text	000000000000001b              _ZNSaISt4pairIKNSt7__cxx1112basic_stringIcSt11char_traitsIcESaIcEEES5_EED2Ev
0000000000004990 g     F .init	0000000000000000              _init
0000000000006894  w    F .text	0000000000000062              _ZNSt4pairIKNSt7__cxx1112basic_stringIcSt11char_traitsIcESaIcEEES5_EC2IS5_S5_EERKS_IT_T0_E



Disassembly of section .init:

0000000000004990 <_init>:
    4990:	48 83 ec 08          	sub    $0x8,%rsp
    4994:	48 8b 05 1d 36 20 00 	mov    0x20361d(%rip),%rax        # 207fb8 <_DYNAMIC+0x1e0>
    499b:	48 85 c0             	test   %rax,%rax
    499e:	74 05                	je     49a5 <_init+0x15>
    49a0:	e8 0b 06 00 00       	callq  4fb0 <_ZNSt8_Rb_treeINSt7__cxx1112basic_stringIcSt11char_traitsIcESaIcEEESt4pairIKS5_S5_ESt10_Select1stIS8_ESt4lessIS5_ESaIS8_EE6_S_keyEPKSt18_Rb_tree_node_base@plt+0x10>
    49a5:	48 83 c4 08          	add    $0x8,%rsp
    49a9:	c3                   	retq   

Disassembly of section .plt:

00000000000049b0 <_ZNSt3mapINSt7__cxx1112basic_stringIcSt11char_traitsIcESaIcEEES5_St4lessIS5_ESaISt4pairIKS5_S5_EEE3endEv@plt-0x10>:
    49b0:	ff 35 52 36 20 00    	pushq  0x203652(%rip)        # 208008 <_GLOBAL_OFFSET_TABLE_+0x8>
    49b6:	ff 25 54 36 20 00    	jmpq   *0x203654(%rip)        # 208010 <_GLOBAL_OFFSET_TABLE_+0x10>
    49bc:	0f 1f 40 00          	nopl   0x0(%rax)

00000000000049c0 <_ZNSt3mapINSt7__cxx1112basic_stringIcSt11char_traitsIcESaIcEEES5_St4lessIS5_ESaISt4pairIKS5_S5_EEE3endEv@plt>:
    49c0:	ff 25 52 36 20 00    	jmpq   *0x203652(%rip)        # 208018 <_GLOBAL_OFFSET_TABLE_+0x18>
    49c6:	68 00 00 00 00       	pushq  $0x0
    49cb:	e9 e0 ff ff ff       	jmpq   49b0 <_init+0x20>

00000000000049d0 <_ZNKSt13_Rb_tree_nodeISt4pairIKNSt7__cxx1112basic_stringIcSt11char_traitsIcESaIcEEES6_EE9_M_valptrEv@plt>:
    49d0:	ff 25 4a 36 20 00    	jmpq   *0x20364a(%rip)        # 208020 <_GLOBAL_OFFSET_TABLE_+0x20>
    49d6:	68 01 00 00 00       	pushq  $0x1
    49db:	e9 d0 ff ff ff       	jmpq   49b0 <_init+0x20>

00000000000049e0 <_ZNSt4pairINSt7__cxx1112basic_stringIcSt11char_traitsIcESaIcEEES5_EC1ERKS5_S8_@plt>:
    49e0:	ff 25 42 36 20 00    	jmpq   *0x203642(%rip)        # 208028 <_GLOBAL_OFFSET_TABLE_+0x28>
    49e6:	68 02 00 00 00       	pushq  $0x2
    49eb:	e9 c0 ff ff ff       	jmpq   49b0 <_init+0x20>

00000000000049f0 <_ZNSt8_Rb_treeINSt7__cxx1112basic_stringIcSt11char_traitsIcESaIcEEESt4pairIKS5_S5_ESt10_Select1stIS8_ESt4lessIS5_ESaIS8_EE14_M_lower_boundEPSt13_Rb_tree_nodeIS8_ESH_RS7_@plt>:
    49f0:	ff 25 3a 36 20 00    	jmpq   *0x20363a(%rip)        # 208030 <_GLOBAL_OFFSET_TABLE_+0x30>
    49f6:	68 03 00 00 00       	pushq  $0x3
    49fb:	e9 b0 ff ff ff       	jmpq   49b0 <_init+0x20>

0000000000004a00 <_ZNSt3mapINSt7__cxx1112basic_stringIcSt11char_traitsIcESaIcEEES5_St4lessIS5_ESaISt4pairIKS5_S5_EEE6insertERKSA_@plt>:
    4a00:	ff 25 32 36 20 00    	jmpq   *0x203632(%rip)        # 208038 <_GLOBAL_OFFSET_TABLE_+0x38>
    4a06:	68 04 00 00 00       	pushq  $0x4
    4a0b:	e9 a0 ff ff ff       	jmpq   49b0 <_init+0x20>

0000000000004a10 <_ZNSt8_Rb_treeINSt7__cxx1112basic_stringIcSt11char_traitsIcESaIcEEESt4pairIKS5_S5_ESt10_Select1stIS8_ESt4lessIS5_ESaIS8_EE17_M_insert_unique_INSE_11_Alloc_nodeEEESt17_Rb_tree_iteratorIS8_ESt23_Rb_tree_const_iteratorIS8_ERKS8_RT_@plt>:
    4a10:	ff 25 2a 36 20 00    	jmpq   *0x20362a(%rip)        # 208040 <_GLOBAL_OFFSET_TABLE_+0x40>
    4a16:	68 05 00 00 00       	pushq  $0x5
    4a1b:	e9 90 ff ff ff       	jmpq   49b0 <_init+0x20>

0000000000004a20 <_ZNKSt8_Rb_treeINSt7__cxx1112basic_stringIcSt11char_traitsIcESaIcEEESt4pairIKS5_S5_ESt10_Select1stIS8_ESt4lessIS5_ESaIS8_EE4sizeEv@plt>:
    4a20:	ff 25 22 36 20 00    	jmpq   *0x203622(%rip)        # 208048 <_GLOBAL_OFFSET_TABLE_+0x48>
    4a26:	68 06 00 00 00       	pushq  $0x6
    4a2b:	e9 80 ff ff ff       	jmpq   49b0 <_init+0x20>

0000000000004a30 <_ZNSt8_Rb_treeINSt7__cxx1112basic_stringIcSt11char_traitsIcESaIcEEESt4pairIKS5_S5_ESt10_Select1stIS8_ESt4lessIS5_ESaIS8_EE17_M_construct_nodeEPSt13_Rb_tree_nodeIS8_ERKS8_@plt>:
    4a30:	ff 25 1a 36 20 00    	jmpq   *0x20361a(%rip)        # 208050 <_GLOBAL_OFFSET_TABLE_+0x50>
    4a36:	68 07 00 00 00       	pushq  $0x7
    4a3b:	e9 70 ff ff ff       	jmpq   49b0 <_init+0x20>

0000000000004a40 <_ZdlPv@plt>:
    4a40:	ff 25 12 36 20 00    	jmpq   *0x203612(%rip)        # 208058 <_GLOBAL_OFFSET_TABLE_+0x58>
    4a46:	68 08 00 00 00       	pushq  $0x8
    4a4b:	e9 60 ff ff ff       	jmpq   49b0 <_init+0x20>

0000000000004a50 <_ZNKSt3mapINSt7__cxx1112basic_stringIcSt11char_traitsIcESaIcEEES5_St4lessIS5_ESaISt4pairIKS5_S5_EEE8key_compEv@plt>:
    4a50:	ff 25 0a 36 20 00    	jmpq   *0x20360a(%rip)        # 208060 <_GLOBAL_OFFSET_TABLE_+0x60>
    4a56:	68 09 00 00 00       	pushq  $0x9
    4a5b:	e9 50 ff ff ff       	jmpq   49b0 <_init+0x20>

0000000000004a60 <_ZNSt8_Rb_treeINSt7__cxx1112basic_stringIcSt11char_traitsIcESaIcEEESt4pairIKS5_S5_ESt10_Select1stIS8_ESt4lessIS5_ESaIS8_EE8_M_beginEv@plt>:
    4a60:	ff 25 02 36 20 00    	jmpq   *0x203602(%rip)        # 208068 <_GLOBAL_OFFSET_TABLE_+0x68>
    4a66:	68 0a 00 00 00       	pushq  $0xa
    4a6b:	e9 40 ff ff ff       	jmpq   49b0 <_init+0x20>

0000000000004a70 <__cxa_rethrow@plt>:
    4a70:	ff 25 fa 35 20 00    	jmpq   *0x2035fa(%rip)        # 208070 <_GLOBAL_OFFSET_TABLE_+0x70>
    4a76:	68 0b 00 00 00       	pushq  $0xb
    4a7b:	e9 30 ff ff ff       	jmpq   49b0 <_init+0x20>

0000000000004a80 <_ZNSt8_Rb_treeINSt7__cxx1112basic_stringIcSt11char_traitsIcESaIcEEESt4pairIKS5_S5_ESt10_Select1stIS8_ESt4lessIS5_ESaIS8_EE16_M_insert_uniqueERKS8_@plt>:
    4a80:	ff 25 f2 35 20 00    	jmpq   *0x2035f2(%rip)        # 208078 <_GLOBAL_OFFSET_TABLE_+0x78>
    4a86:	68 0c 00 00 00       	pushq  $0xc
    4a8b:	e9 20 ff ff ff       	jmpq   49b0 <_init+0x20>

0000000000004a90 <_ZNSt8ios_base4InitC1Ev@plt>:
    4a90:	ff 25 ea 35 20 00    	jmpq   *0x2035ea(%rip)        # 208080 <_GLOBAL_OFFSET_TABLE_+0x80>
    4a96:	68 0d 00 00 00       	pushq  $0xd
    4a9b:	e9 10 ff ff ff       	jmpq   49b0 <_init+0x20>

0000000000004aa0 <_ZNSt3mapINSt7__cxx1112basic_stringIcSt11char_traitsIcESaIcEEES5_St4lessIS5_ESaISt4pairIKS5_S5_EEE6insertESt17_Rb_tree_iteratorISA_ERKSA_@plt>:
    4aa0:	ff 25 e2 35 20 00    	jmpq   *0x2035e2(%rip)        # 208088 <_GLOBAL_OFFSET_TABLE_+0x88>
    4aa6:	68 0e 00 00 00       	pushq  $0xe
    4aab:	e9 00 ff ff ff       	jmpq   49b0 <_init+0x20>

0000000000004ab0 <_ZN9__gnu_cxx13new_allocatorISt4pairIKNSt7__cxx1112basic_stringIcSt11char_traitsIcESaIcEEES7_EEC2Ev@plt>:
    4ab0:	ff 25 da 35 20 00    	jmpq   *0x2035da(%rip)        # 208090 <_GLOBAL_OFFSET_TABLE_+0x90>
    4ab6:	68 0f 00 00 00       	pushq  $0xf
    4abb:	e9 f0 fe ff ff       	jmpq   49b0 <_init+0x20>

0000000000004ac0 <_ZSt18_Rb_tree_decrementPSt18_Rb_tree_node_base@plt>:
    4ac0:	ff 25 d2 35 20 00    	jmpq   *0x2035d2(%rip)        # 208098 <_GLOBAL_OFFSET_TABLE_+0x98>
    4ac6:	68 10 00 00 00       	pushq  $0x10
    4acb:	e9 e0 fe ff ff       	jmpq   49b0 <_init+0x20>

0000000000004ad0 <_ZNSt17_Rb_tree_iteratorISt4pairIKNSt7__cxx1112basic_stringIcSt11char_traitsIcESaIcEEES6_EEC1EPSt18_Rb_tree_node_base@plt>:
    4ad0:	ff 25 ca 35 20 00    	jmpq   *0x2035ca(%rip)        # 2080a0 <_GLOBAL_OFFSET_TABLE_+0xa0>
    4ad6:	68 11 00 00 00       	pushq  $0x11
    4adb:	e9 d0 fe ff ff       	jmpq   49b0 <_init+0x20>

0000000000004ae0 <_ZN9__gnu_cxx13new_allocatorISt13_Rb_tree_nodeISt4pairIKNSt7__cxx1112basic_stringIcSt11char_traitsIcESaIcEEES8_EEE10deallocateEPSB_m@plt>:
    4ae0:	ff 25 c2 35 20 00    	jmpq   *0x2035c2(%rip)        # 2080a8 <_GLOBAL_OFFSET_TABLE_+0xa8>
    4ae6:	68 12 00 00 00       	pushq  $0x12
    4aeb:	e9 c0 fe ff ff       	jmpq   49b0 <_init+0x20>

0000000000004af0 <__cxa_atexit@plt>:
    4af0:	ff 25 ba 35 20 00    	jmpq   *0x2035ba(%rip)        # 2080b0 <_GLOBAL_OFFSET_TABLE_+0xb0>
    4af6:	68 13 00 00 00       	pushq  $0x13
    4afb:	e9 b0 fe ff ff       	jmpq   49b0 <_init+0x20>

0000000000004b00 <_ZnwmPv@plt>:
    4b00:	ff 25 b2 35 20 00    	jmpq   *0x2035b2(%rip)        # 2080b8 <_GLOBAL_OFFSET_TABLE_+0xb8>
    4b06:	68 14 00 00 00       	pushq  $0x14
    4b0b:	e9 a0 fe ff ff       	jmpq   49b0 <_init+0x20>

0000000000004b10 <_ZNSt8_Rb_treeINSt7__cxx1112basic_stringIcSt11char_traitsIcESaIcEEESt4pairIKS5_S5_ESt10_Select1stIS8_ESt4lessIS5_ESaIS8_EE10_M_insert_INSE_11_Alloc_nodeEEESt17_Rb_tree_iteratorIS8_EPSt18_Rb_tree_node_baseSK_RKS8_RT_@plt>:
    4b10:	ff 25 aa 35 20 00    	jmpq   *0x2035aa(%rip)        # 2080c0 <_GLOBAL_OFFSET_TABLE_+0xc0>
    4b16:	68 15 00 00 00       	pushq  $0x15
    4b1b:	e9 90 fe ff ff       	jmpq   49b0 <_init+0x20>

0000000000004b20 <_ZNSt8_Rb_treeINSt7__cxx1112basic_stringIcSt11char_traitsIcESaIcEEESt4pairIKS5_S5_ESt10_Select1stIS8_ESt4lessIS5_ESaIS8_EE8_S_rightEPSt18_Rb_tree_node_base@plt>:
    4b20:	ff 25 a2 35 20 00    	jmpq   *0x2035a2(%rip)        # 2080c8 <_GLOBAL_OFFSET_TABLE_+0xc8>
    4b26:	68 16 00 00 00       	pushq  $0x16
    4b2b:	e9 80 fe ff ff       	jmpq   49b0 <_init+0x20>

0000000000004b30 <_ZN9__gnu_cxx14__alloc_traitsISaISt13_Rb_tree_nodeISt4pairIKNSt7__cxx1112basic_stringIcSt11char_traitsIcESaIcEEES8_EEEE10deallocateERSC_PSB_m@plt>:
    4b30:	ff 25 9a 35 20 00    	jmpq   *0x20359a(%rip)        # 2080d0 <_GLOBAL_OFFSET_TABLE_+0xd0>
    4b36:	68 17 00 00 00       	pushq  $0x17
    4b3b:	e9 70 fe ff ff       	jmpq   49b0 <_init+0x20>

0000000000004b40 <_ZStlsISt11char_traitsIcEERSt13basic_ostreamIcT_ES5_PKc@plt>:
    4b40:	ff 25 92 35 20 00    	jmpq   *0x203592(%rip)        # 2080d8 <_GLOBAL_OFFSET_TABLE_+0xd8>
    4b46:	68 18 00 00 00       	pushq  $0x18
    4b4b:	e9 60 fe ff ff       	jmpq   49b0 <_init+0x20>

0000000000004b50 <_ZNSt8_Rb_treeINSt7__cxx1112basic_stringIcSt11char_traitsIcESaIcEEESt4pairIKS5_S5_ESt10_Select1stIS8_ESt4lessIS5_ESaIS8_EE21_M_get_Node_allocatorEv@plt>:
    4b50:	ff 25 8a 35 20 00    	jmpq   *0x20358a(%rip)        # 2080e0 <_GLOBAL_OFFSET_TABLE_+0xe0>
    4b56:	68 19 00 00 00       	pushq  $0x19
    4b5b:	e9 50 fe ff ff       	jmpq   49b0 <_init+0x20>

0000000000004b60 <_ZNSt7__cxx1112basic_stringIcSt11char_traitsIcESaIcEEC1Ev@plt>:
    4b60:	ff 25 82 35 20 00    	jmpq   *0x203582(%rip)        # 2080e8 <_GLOBAL_OFFSET_TABLE_+0xe8>
    4b66:	68 1a 00 00 00       	pushq  $0x1a
    4b6b:	e9 40 fe ff ff       	jmpq   49b0 <_init+0x20>

0000000000004b70 <_ZNKSt8_Rb_treeINSt7__cxx1112basic_stringIcSt11char_traitsIcESaIcEEESt4pairIKS5_S5_ESt10_Select1stIS8_ESt4lessIS5_ESaIS8_EE21_M_get_Node_allocatorEv@plt>:
    4b70:	ff 25 7a 35 20 00    	jmpq   *0x20357a(%rip)        # 2080f0 <_GLOBAL_OFFSET_TABLE_+0xf0>
    4b76:	68 1b 00 00 00       	pushq  $0x1b
    4b7b:	e9 30 fe ff ff       	jmpq   49b0 <_init+0x20>

0000000000004b80 <_ZNSt8_Rb_treeINSt7__cxx1112basic_stringIcSt11char_traitsIcESaIcEEESt4pairIKS5_S5_ESt10_Select1stIS8_ESt4lessIS5_ESaIS8_EE6_M_endEv@plt>:
    4b80:	ff 25 72 35 20 00    	jmpq   *0x203572(%rip)        # 2080f8 <_GLOBAL_OFFSET_TABLE_+0xf8>
    4b86:	68 1c 00 00 00       	pushq  $0x1c
    4b8b:	e9 20 fe ff ff       	jmpq   49b0 <_init+0x20>

0000000000004b90 <_ZNSt17_Rb_tree_iteratorISt4pairIKNSt7__cxx1112basic_stringIcSt11char_traitsIcESaIcEEES6_EEppEv@plt>:
    4b90:	ff 25 6a 35 20 00    	jmpq   *0x20356a(%rip)        # 208100 <_GLOBAL_OFFSET_TABLE_+0x100>
    4b96:	68 1d 00 00 00       	pushq  $0x1d
    4b9b:	e9 10 fe ff ff       	jmpq   49b0 <_init+0x20>

0000000000004ba0 <_ZNSt8_Rb_treeINSt7__cxx1112basic_stringIcSt11char_traitsIcESaIcEEESt4pairIKS5_S5_ESt10_Select1stIS8_ESt4lessIS5_ESaIS8_EE8_S_valueEPKSt18_Rb_tree_node_base@plt>:
    4ba0:	ff 25 62 35 20 00    	jmpq   *0x203562(%rip)        # 208108 <_GLOBAL_OFFSET_TABLE_+0x108>
    4ba6:	68 1e 00 00 00       	pushq  $0x1e
    4bab:	e9 00 fe ff ff       	jmpq   49b0 <_init+0x20>

0000000000004bb0 <_ZNSt7__cxx1112basic_stringIcSt11char_traitsIcESaIcEED1Ev@plt>:
    4bb0:	ff 25 5a 35 20 00    	jmpq   *0x20355a(%rip)        # 208110 <_GLOBAL_OFFSET_TABLE_+0x110>
    4bb6:	68 1f 00 00 00       	pushq  $0x1f
    4bbb:	e9 f0 fd ff ff       	jmpq   49b0 <_init+0x20>

0000000000004bc0 <_ZNKSt7__cxx1112basic_stringIcSt11char_traitsIcESaIcEE7compareERKS4_@plt>:
    4bc0:	ff 25 52 35 20 00    	jmpq   *0x203552(%rip)        # 208118 <_GLOBAL_OFFSET_TABLE_+0x118>
    4bc6:	68 20 00 00 00       	pushq  $0x20
    4bcb:	e9 e0 fd ff ff       	jmpq   49b0 <_init+0x20>

0000000000004bd0 <_ZNSt8_Rb_treeINSt7__cxx1112basic_stringIcSt11char_traitsIcESaIcEEESt4pairIKS5_S5_ESt10_Select1stIS8_ESt4lessIS5_ESaIS8_EE6_S_keyEPKSt13_Rb_tree_nodeIS8_E@plt>:
    4bd0:	ff 25 4a 35 20 00    	jmpq   *0x20354a(%rip)        # 208120 <_GLOBAL_OFFSET_TABLE_+0x120>
    4bd6:	68 21 00 00 00       	pushq  $0x21
    4bdb:	e9 d0 fd ff ff       	jmpq   49b0 <_init+0x20>

0000000000004be0 <_ZNKSt17_Rb_tree_iteratorISt4pairIKNSt7__cxx1112basic_stringIcSt11char_traitsIcESaIcEEES6_EEeqERKS9_@plt>:
    4be0:	ff 25 42 35 20 00    	jmpq   *0x203542(%rip)        # 208128 <_GLOBAL_OFFSET_TABLE_+0x128>
    4be6:	68 22 00 00 00       	pushq  $0x22
    4beb:	e9 c0 fd ff ff       	jmpq   49b0 <_init+0x20>

0000000000004bf0 <_ZNKSt8_Rb_treeINSt7__cxx1112basic_stringIcSt11char_traitsIcESaIcEEESt4pairIKS5_S5_ESt10_Select1stIS8_ESt4lessIS5_ESaIS8_EE8key_compEv@plt>:
    4bf0:	ff 25 3a 35 20 00    	jmpq   *0x20353a(%rip)        # 208130 <_GLOBAL_OFFSET_TABLE_+0x130>
    4bf6:	68 23 00 00 00       	pushq  $0x23
    4bfb:	e9 b0 fd ff ff       	jmpq   49b0 <_init+0x20>

0000000000004c00 <_ZNSt8_Rb_treeINSt7__cxx1112basic_stringIcSt11char_traitsIcESaIcEEESt4pairIKS5_S5_ESt10_Select1stIS8_ESt4lessIS5_ESaIS8_EE11_Alloc_nodeC1ERSE_@plt>:
    4c00:	ff 25 32 35 20 00    	jmpq   *0x203532(%rip)        # 208138 <_GLOBAL_OFFSET_TABLE_+0x138>
    4c06:	68 24 00 00 00       	pushq  $0x24
    4c0b:	e9 a0 fd ff ff       	jmpq   49b0 <_init+0x20>

0000000000004c10 <_ZNSt8_Rb_treeINSt7__cxx1112basic_stringIcSt11char_traitsIcESaIcEEESt4pairIKS5_S5_ESt10_Select1stIS8_ESt4lessIS5_ESaIS8_EE11_M_put_nodeEPSt13_Rb_tree_nodeIS8_E@plt>:
    4c10:	ff 25 2a 35 20 00    	jmpq   *0x20352a(%rip)        # 208140 <_GLOBAL_OFFSET_TABLE_+0x140>
    4c16:	68 25 00 00 00       	pushq  $0x25
    4c1b:	e9 90 fd ff ff       	jmpq   49b0 <_init+0x20>

0000000000004c20 <_ZNKSt23_Rb_tree_const_iteratorISt4pairIKNSt7__cxx1112basic_stringIcSt11char_traitsIcESaIcEEES6_EE13_M_const_castEv@plt>:
    4c20:	ff 25 22 35 20 00    	jmpq   *0x203522(%rip)        # 208148 <_GLOBAL_OFFSET_TABLE_+0x148>
    4c26:	68 26 00 00 00       	pushq  $0x26
    4c2b:	e9 80 fd ff ff       	jmpq   49b0 <_init+0x20>

0000000000004c30 <_ZNSt4pairIKNSt7__cxx1112basic_stringIcSt11char_traitsIcESaIcEEES5_EC1ERKS7_@plt>:
    4c30:	ff 25 1a 35 20 00    	jmpq   *0x20351a(%rip)        # 208150 <_GLOBAL_OFFSET_TABLE_+0x150>
    4c36:	68 27 00 00 00       	pushq  $0x27
    4c3b:	e9 70 fd ff ff       	jmpq   49b0 <_init+0x20>

0000000000004c40 <_ZNSt23_Rb_tree_const_iteratorISt4pairIKNSt7__cxx1112basic_stringIcSt11char_traitsIcESaIcEEES6_EEC1ERKSt17_Rb_tree_iteratorIS8_E@plt>:
    4c40:	ff 25 12 35 20 00    	jmpq   *0x203512(%rip)        # 208158 <_GLOBAL_OFFSET_TABLE_+0x158>
    4c46:	68 28 00 00 00       	pushq  $0x28
    4c4b:	e9 60 fd ff ff       	jmpq   49b0 <_init+0x20>

0000000000004c50 <_ZNSt8_Rb_treeINSt7__cxx1112basic_stringIcSt11char_traitsIcESaIcEEESt4pairIKS5_S5_ESt10_Select1stIS8_ESt4lessIS5_ESaIS8_EE3endEv@plt>:
    4c50:	ff 25 0a 35 20 00    	jmpq   *0x20350a(%rip)        # 208160 <_GLOBAL_OFFSET_TABLE_+0x160>
    4c56:	68 29 00 00 00       	pushq  $0x29
    4c5b:	e9 50 fd ff ff       	jmpq   49b0 <_init+0x20>

0000000000004c60 <_ZNSt8_Rb_treeINSt7__cxx1112basic_stringIcSt11char_traitsIcESaIcEEESt4pairIKS5_S5_ESt10_Select1stIS8_ESt4lessIS5_ESaIS8_EE14_M_create_nodeERKS8_@plt>:
    4c60:	ff 25 02 35 20 00    	jmpq   *0x203502(%rip)        # 208168 <_GLOBAL_OFFSET_TABLE_+0x168>
    4c66:	68 2a 00 00 00       	pushq  $0x2a
    4c6b:	e9 40 fd ff ff       	jmpq   49b0 <_init+0x20>

0000000000004c70 <_ZN9__gnu_cxx13new_allocatorISt4pairIKNSt7__cxx1112basic_stringIcSt11char_traitsIcESaIcEEES7_EE9constructEPS9_RKS9_@plt>:
    4c70:	ff 25 fa 34 20 00    	jmpq   *0x2034fa(%rip)        # 208170 <_GLOBAL_OFFSET_TABLE_+0x170>
    4c76:	68 2b 00 00 00       	pushq  $0x2b
    4c7b:	e9 30 fd ff ff       	jmpq   49b0 <_init+0x20>

0000000000004c80 <_ZNSt8_Rb_treeINSt7__cxx1112basic_stringIcSt11char_traitsIcESaIcEEESt4pairIKS5_S5_ESt10_Select1stIS8_ESt4lessIS5_ESaIS8_EE5beginEv@plt>:
    4c80:	ff 25 f2 34 20 00    	jmpq   *0x2034f2(%rip)        # 208178 <_GLOBAL_OFFSET_TABLE_+0x178>
    4c86:	68 2c 00 00 00       	pushq  $0x2c
    4c8b:	e9 20 fd ff ff       	jmpq   49b0 <_init+0x20>

0000000000004c90 <_ZNKSt8_Rb_treeINSt7__cxx1112basic_stringIcSt11char_traitsIcESaIcEEESt4pairIKS5_S5_ESt10_Select1stIS8_ESt4lessIS5_ESaIS8_EE11_Alloc_nodeclIS8_EEPSt13_Rb_tree_nodeIS8_ERKT_@plt>:
    4c90:	ff 25 ea 34 20 00    	jmpq   *0x2034ea(%rip)        # 208180 <_GLOBAL_OFFSET_TABLE_+0x180>
    4c96:	68 2d 00 00 00       	pushq  $0x2d
    4c9b:	e9 10 fd ff ff       	jmpq   49b0 <_init+0x20>

0000000000004ca0 <_ZNSt8_Rb_treeINSt7__cxx1112basic_stringIcSt11char_traitsIcESaIcEEESt4pairIKS5_S5_ESt10_Select1stIS8_ESt4lessIS5_ESaIS8_EE17_M_insert_unique_ESt23_Rb_tree_const_iteratorIS8_ERKS8_@plt>:
    4ca0:	ff 25 e2 34 20 00    	jmpq   *0x2034e2(%rip)        # 208188 <_GLOBAL_OFFSET_TABLE_+0x188>
    4ca6:	68 2e 00 00 00       	pushq  $0x2e
    4cab:	e9 00 fd ff ff       	jmpq   49b0 <_init+0x20>

0000000000004cb0 <_ZNSt3mapINSt7__cxx1112basic_stringIcSt11char_traitsIcESaIcEEES5_St4lessIS5_ESaISt4pairIKS5_S5_EEEixERS9_@plt>:
    4cb0:	ff 25 da 34 20 00    	jmpq   *0x2034da(%rip)        # 208190 <_GLOBAL_OFFSET_TABLE_+0x190>
    4cb6:	68 2f 00 00 00       	pushq  $0x2f
    4cbb:	e9 f0 fc ff ff       	jmpq   49b0 <_init+0x20>

0000000000004cc0 <_ZNSt13_Rb_tree_nodeISt4pairIKNSt7__cxx1112basic_stringIcSt11char_traitsIcESaIcEEES6_EE9_M_valptrEv@plt>:
    4cc0:	ff 25 d2 34 20 00    	jmpq   *0x2034d2(%rip)        # 208198 <_GLOBAL_OFFSET_TABLE_+0x198>
    4cc6:	68 30 00 00 00       	pushq  $0x30
    4ccb:	e9 e0 fc ff ff       	jmpq   49b0 <_init+0x20>

0000000000004cd0 <_ZNSt8_Rb_treeINSt7__cxx1112basic_stringIcSt11char_traitsIcESaIcEEESt4pairIKS5_S5_ESt10_Select1stIS8_ESt4lessIS5_ESaIS8_EE11_M_get_nodeEv@plt>:
    4cd0:	ff 25 ca 34 20 00    	jmpq   *0x2034ca(%rip)        # 2081a0 <_GLOBAL_OFFSET_TABLE_+0x1a0>
    4cd6:	68 31 00 00 00       	pushq  $0x31
    4cdb:	e9 d0 fc ff ff       	jmpq   49b0 <_init+0x20>

0000000000004ce0 <_ZNSaISt4pairIKNSt7__cxx1112basic_stringIcSt11char_traitsIcESaIcEEES5_EED1Ev@plt>:
    4ce0:	ff 25 c2 34 20 00    	jmpq   *0x2034c2(%rip)        # 2081a8 <_GLOBAL_OFFSET_TABLE_+0x1a8>
    4ce6:	68 32 00 00 00       	pushq  $0x32
    4ceb:	e9 c0 fc ff ff       	jmpq   49b0 <_init+0x20>

0000000000004cf0 <_ZN9__gnu_cxx13new_allocatorISt4pairIKNSt7__cxx1112basic_stringIcSt11char_traitsIcESaIcEEES7_EED2Ev@plt>:
    4cf0:	ff 25 ba 34 20 00    	jmpq   *0x2034ba(%rip)        # 2081b0 <_GLOBAL_OFFSET_TABLE_+0x1b0>
    4cf6:	68 33 00 00 00       	pushq  $0x33
    4cfb:	e9 b0 fc ff ff       	jmpq   49b0 <_init+0x20>

0000000000004d00 <_ZN9__gnu_cxx13new_allocatorISt13_Rb_tree_nodeISt4pairIKNSt7__cxx1112basic_stringIcSt11char_traitsIcESaIcEEES8_EEE8allocateEmPKv@plt>:
    4d00:	ff 25 b2 34 20 00    	jmpq   *0x2034b2(%rip)        # 2081b8 <_GLOBAL_OFFSET_TABLE_+0x1b8>
    4d06:	68 34 00 00 00       	pushq  $0x34
    4d0b:	e9 a0 fc ff ff       	jmpq   49b0 <_init+0x20>

0000000000004d10 <_ZNSt4pairINSt7__cxx1112basic_stringIcSt11char_traitsIcESaIcEEES5_ED1Ev@plt>:
    4d10:	ff 25 aa 34 20 00    	jmpq   *0x2034aa(%rip)        # 2081c0 <_GLOBAL_OFFSET_TABLE_+0x1c0>
    4d16:	68 35 00 00 00       	pushq  $0x35
    4d1b:	e9 90 fc ff ff       	jmpq   49b0 <_init+0x20>

0000000000004d20 <_ZSt11__addressofIKSt4pairIKNSt7__cxx1112basic_stringIcSt11char_traitsIcESaIcEEES6_EEPT_RSA_@plt>:
    4d20:	ff 25 a2 34 20 00    	jmpq   *0x2034a2(%rip)        # 2081c8 <_GLOBAL_OFFSET_TABLE_+0x1c8>
    4d26:	68 36 00 00 00       	pushq  $0x36
    4d2b:	e9 80 fc ff ff       	jmpq   49b0 <_init+0x20>

0000000000004d30 <_ZNSt8_Rb_treeINSt7__cxx1112basic_stringIcSt11char_traitsIcESaIcEEESt4pairIKS5_S5_ESt10_Select1stIS8_ESt4lessIS5_ESaIS8_EE11lower_boundERS7_@plt>:
    4d30:	ff 25 9a 34 20 00    	jmpq   *0x20349a(%rip)        # 2081d0 <_GLOBAL_OFFSET_TABLE_+0x1d0>
    4d36:	68 37 00 00 00       	pushq  $0x37
    4d3b:	e9 70 fc ff ff       	jmpq   49b0 <_init+0x20>

0000000000004d40 <_ZNKSt10_Select1stISt4pairIKNSt7__cxx1112basic_stringIcSt11char_traitsIcESaIcEEES6_EEclERKS8_@plt>:
    4d40:	ff 25 92 34 20 00    	jmpq   *0x203492(%rip)        # 2081d8 <_GLOBAL_OFFSET_TABLE_+0x1d8>
    4d46:	68 38 00 00 00       	pushq  $0x38
    4d4b:	e9 60 fc ff ff       	jmpq   49b0 <_init+0x20>

0000000000004d50 <_ZNKSt17_Rb_tree_iteratorISt4pairIKNSt7__cxx1112basic_stringIcSt11char_traitsIcESaIcEEES6_EEdeEv@plt>:
    4d50:	ff 25 8a 34 20 00    	jmpq   *0x20348a(%rip)        # 2081e0 <_GLOBAL_OFFSET_TABLE_+0x1e0>
    4d56:	68 39 00 00 00       	pushq  $0x39
    4d5b:	e9 50 fc ff ff       	jmpq   49b0 <_init+0x20>

0000000000004d60 <_ZN9__gnu_cxx14__alloc_traitsISaISt13_Rb_tree_nodeISt4pairIKNSt7__cxx1112basic_stringIcSt11char_traitsIcESaIcEEES8_EEEE8allocateERSC_m@plt>:
    4d60:	ff 25 82 34 20 00    	jmpq   *0x203482(%rip)        # 2081e8 <_GLOBAL_OFFSET_TABLE_+0x1e8>
    4d66:	68 3a 00 00 00       	pushq  $0x3a
    4d6b:	e9 40 fc ff ff       	jmpq   49b0 <_init+0x20>

0000000000004d70 <_ZNSt8_Rb_treeINSt7__cxx1112basic_stringIcSt11char_traitsIcESaIcEEESt4pairIKS5_S5_ESt10_Select1stIS8_ESt4lessIS5_ESaIS8_EE7_S_leftEPSt18_Rb_tree_node_base@plt>:
    4d70:	ff 25 7a 34 20 00    	jmpq   *0x20347a(%rip)        # 2081f0 <_GLOBAL_OFFSET_TABLE_+0x1f0>
    4d76:	68 3b 00 00 00       	pushq  $0x3b
    4d7b:	e9 30 fc ff ff       	jmpq   49b0 <_init+0x20>

0000000000004d80 <_ZSt29_Rb_tree_insert_and_rebalancebPSt18_Rb_tree_node_baseS0_RS_@plt>:
    4d80:	ff 25 72 34 20 00    	jmpq   *0x203472(%rip)        # 2081f8 <_GLOBAL_OFFSET_TABLE_+0x1f8>
    4d86:	68 3c 00 00 00       	pushq  $0x3c
    4d8b:	e9 20 fc ff ff       	jmpq   49b0 <_init+0x20>

0000000000004d90 <_ZStltIcSt11char_traitsIcESaIcEEbRKNSt7__cxx1112basic_stringIT_T0_T1_EESA_@plt>:
    4d90:	ff 25 6a 34 20 00    	jmpq   *0x20346a(%rip)        # 208200 <_GLOBAL_OFFSET_TABLE_+0x200>
    4d96:	68 3d 00 00 00       	pushq  $0x3d
    4d9b:	e9 10 fc ff ff       	jmpq   49b0 <_init+0x20>

0000000000004da0 <_ZNSt4pairIKNSt7__cxx1112basic_stringIcSt11char_traitsIcESaIcEEES5_EC1ERS6_S8_@plt>:
    4da0:	ff 25 62 34 20 00    	jmpq   *0x203462(%rip)        # 208208 <_GLOBAL_OFFSET_TABLE_+0x208>
    4da6:	68 3e 00 00 00       	pushq  $0x3e
    4dab:	e9 00 fc ff ff       	jmpq   49b0 <_init+0x20>

0000000000004db0 <_ZNSt4pairIKNSt7__cxx1112basic_stringIcSt11char_traitsIcESaIcEEES5_ED1Ev@plt>:
    4db0:	ff 25 5a 34 20 00    	jmpq   *0x20345a(%rip)        # 208210 <_GLOBAL_OFFSET_TABLE_+0x210>
    4db6:	68 3f 00 00 00       	pushq  $0x3f
    4dbb:	e9 f0 fb ff ff       	jmpq   49b0 <_init+0x20>

0000000000004dc0 <__stack_chk_fail@plt>:
    4dc0:	ff 25 52 34 20 00    	jmpq   *0x203452(%rip)        # 208218 <_GLOBAL_OFFSET_TABLE_+0x218>
    4dc6:	68 40 00 00 00       	pushq  $0x40
    4dcb:	e9 e0 fb ff ff       	jmpq   49b0 <_init+0x20>

0000000000004dd0 <_ZNSt8_Rb_treeINSt7__cxx1112basic_stringIcSt11char_traitsIcESaIcEEESt4pairIKS5_S5_ESt10_Select1stIS8_ESt4lessIS5_ESaIS8_EE8_S_valueEPKSt13_Rb_tree_nodeIS8_E@plt>:
    4dd0:	ff 25 4a 34 20 00    	jmpq   *0x20344a(%rip)        # 208220 <_GLOBAL_OFFSET_TABLE_+0x220>
    4dd6:	68 41 00 00 00       	pushq  $0x41
    4ddb:	e9 d0 fb ff ff       	jmpq   49b0 <_init+0x20>

0000000000004de0 <_ZNSaISt4pairIKNSt7__cxx1112basic_stringIcSt11char_traitsIcESaIcEEES5_EEC1ISt13_Rb_tree_nodeIS7_EEERKSaIT_E@plt>:
    4de0:	ff 25 42 34 20 00    	jmpq   *0x203442(%rip)        # 208228 <_GLOBAL_OFFSET_TABLE_+0x228>
    4de6:	68 42 00 00 00       	pushq  $0x42
    4deb:	e9 c0 fb ff ff       	jmpq   49b0 <_init+0x20>

0000000000004df0 <_ZNSaIcED1Ev@plt>:
    4df0:	ff 25 3a 34 20 00    	jmpq   *0x20343a(%rip)        # 208230 <_GLOBAL_OFFSET_TABLE_+0x230>
    4df6:	68 43 00 00 00       	pushq  $0x43
    4dfb:	e9 b0 fb ff ff       	jmpq   49b0 <_init+0x20>

0000000000004e00 <_ZNSt8_Rb_treeINSt7__cxx1112basic_stringIcSt11char_traitsIcESaIcEEESt4pairIKS5_S5_ESt10_Select1stIS8_ESt4lessIS5_ESaIS8_EE11_M_leftmostEv@plt>:
    4e00:	ff 25 32 34 20 00    	jmpq   *0x203432(%rip)        # 208238 <_GLOBAL_OFFSET_TABLE_+0x238>
    4e06:	68 44 00 00 00       	pushq  $0x44
    4e0b:	e9 a0 fb ff ff       	jmpq   49b0 <_init+0x20>

0000000000004e10 <_ZSt11__addressofISt4pairIKNSt7__cxx1112basic_stringIcSt11char_traitsIcESaIcEEES6_EEPT_RS9_@plt>:
    4e10:	ff 25 2a 34 20 00    	jmpq   *0x20342a(%rip)        # 208240 <_GLOBAL_OFFSET_TABLE_+0x240>
    4e16:	68 45 00 00 00       	pushq  $0x45
    4e1b:	e9 90 fb ff ff       	jmpq   49b0 <_init+0x20>

0000000000004e20 <_ZNSt4pairIPSt18_Rb_tree_node_baseS1_EC1ERKS1_S4_@plt>:
    4e20:	ff 25 22 34 20 00    	jmpq   *0x203422(%rip)        # 208248 <_GLOBAL_OFFSET_TABLE_+0x248>
    4e26:	68 46 00 00 00       	pushq  $0x46
    4e2b:	e9 80 fb ff ff       	jmpq   49b0 <_init+0x20>

0000000000004e30 <_ZNKSt7__cxx1112basic_stringIcSt11char_traitsIcESaIcEE4sizeEv@plt>:
    4e30:	ff 25 1a 34 20 00    	jmpq   *0x20341a(%rip)        # 208250 <_GLOBAL_OFFSET_TABLE_+0x250>
    4e36:	68 47 00 00 00       	pushq  $0x47
    4e3b:	e9 70 fb ff ff       	jmpq   49b0 <_init+0x20>

0000000000004e40 <_ZNSt8_Rb_treeINSt7__cxx1112basic_stringIcSt11char_traitsIcESaIcEEESt4pairIKS5_S5_ESt10_Select1stIS8_ESt4lessIS5_ESaIS8_EE24_M_get_insert_unique_posERS7_@plt>:
    4e40:	ff 25 12 34 20 00    	jmpq   *0x203412(%rip)        # 208258 <_GLOBAL_OFFSET_TABLE_+0x258>
    4e46:	68 48 00 00 00       	pushq  $0x48
    4e4b:	e9 60 fb ff ff       	jmpq   49b0 <_init+0x20>

0000000000004e50 <_ZNSolsEPFRSoS_E@plt>:
    4e50:	ff 25 0a 34 20 00    	jmpq   *0x20340a(%rip)        # 208260 <_GLOBAL_OFFSET_TABLE_+0x260>
    4e56:	68 49 00 00 00       	pushq  $0x49
    4e5b:	e9 50 fb ff ff       	jmpq   49b0 <_init+0x20>

0000000000004e60 <_ZNSt4pairIKNSt7__cxx1112basic_stringIcSt11char_traitsIcESaIcEEES5_EC1IS5_S5_EERKS_IT_T0_E@plt>:
    4e60:	ff 25 02 34 20 00    	jmpq   *0x203402(%rip)        # 208268 <_GLOBAL_OFFSET_TABLE_+0x268>
    4e66:	68 4a 00 00 00       	pushq  $0x4a
    4e6b:	e9 40 fb ff ff       	jmpq   49b0 <_init+0x20>

0000000000004e70 <_ZNK9__gnu_cxx13new_allocatorISt13_Rb_tree_nodeISt4pairIKNSt7__cxx1112basic_stringIcSt11char_traitsIcESaIcEEES8_EEE8max_sizeEv@plt>:
    4e70:	ff 25 fa 33 20 00    	jmpq   *0x2033fa(%rip)        # 208270 <_GLOBAL_OFFSET_TABLE_+0x270>
    4e76:	68 4b 00 00 00       	pushq  $0x4b
    4e7b:	e9 30 fb ff ff       	jmpq   49b0 <_init+0x20>

0000000000004e80 <_ZNSt8_Rb_treeINSt7__cxx1112basic_stringIcSt11char_traitsIcESaIcEEESt4pairIKS5_S5_ESt10_Select1stIS8_ESt4lessIS5_ESaIS8_EE12_M_rightmostEv@plt>:
    4e80:	ff 25 f2 33 20 00    	jmpq   *0x2033f2(%rip)        # 208278 <_GLOBAL_OFFSET_TABLE_+0x278>
    4e86:	68 4c 00 00 00       	pushq  $0x4c
    4e8b:	e9 20 fb ff ff       	jmpq   49b0 <_init+0x20>

0000000000004e90 <_ZSt18_Rb_tree_incrementPSt18_Rb_tree_node_base@plt>:
    4e90:	ff 25 ea 33 20 00    	jmpq   *0x2033ea(%rip)        # 208280 <_GLOBAL_OFFSET_TABLE_+0x280>
    4e96:	68 4d 00 00 00       	pushq  $0x4d
    4e9b:	e9 10 fb ff ff       	jmpq   49b0 <_init+0x20>

0000000000004ea0 <__cxa_end_catch@plt>:
    4ea0:	ff 25 e2 33 20 00    	jmpq   *0x2033e2(%rip)        # 208288 <_GLOBAL_OFFSET_TABLE_+0x288>
    4ea6:	68 4e 00 00 00       	pushq  $0x4e
    4eab:	e9 00 fb ff ff       	jmpq   49b0 <_init+0x20>

0000000000004eb0 <_ZSt17__throw_bad_allocv@plt>:
    4eb0:	ff 25 da 33 20 00    	jmpq   *0x2033da(%rip)        # 208290 <_GLOBAL_OFFSET_TABLE_+0x290>
    4eb6:	68 4f 00 00 00       	pushq  $0x4f
    4ebb:	e9 f0 fa ff ff       	jmpq   49b0 <_init+0x20>

0000000000004ec0 <_ZNKSt8_Rb_treeINSt7__cxx1112basic_stringIcSt11char_traitsIcESaIcEEESt4pairIKS5_S5_ESt10_Select1stIS8_ESt4lessIS5_ESaIS8_EE13get_allocatorEv@plt>:
    4ec0:	ff 25 d2 33 20 00    	jmpq   *0x2033d2(%rip)        # 208298 <_GLOBAL_OFFSET_TABLE_+0x298>
    4ec6:	68 50 00 00 00       	pushq  $0x50
    4ecb:	e9 e0 fa ff ff       	jmpq   49b0 <_init+0x20>

0000000000004ed0 <_ZNSt4pairISt17_Rb_tree_iteratorIS_IKNSt7__cxx1112basic_stringIcSt11char_traitsIcESaIcEEES6_EEbEC1ERKS9_RKb@plt>:
    4ed0:	ff 25 ca 33 20 00    	jmpq   *0x2033ca(%rip)        # 2082a0 <_GLOBAL_OFFSET_TABLE_+0x2a0>
    4ed6:	68 51 00 00 00       	pushq  $0x51
    4edb:	e9 d0 fa ff ff       	jmpq   49b0 <_init+0x20>

0000000000004ee0 <__cxa_begin_catch@plt>:
    4ee0:	ff 25 c2 33 20 00    	jmpq   *0x2033c2(%rip)        # 2082a8 <_GLOBAL_OFFSET_TABLE_+0x2a8>
    4ee6:	68 52 00 00 00       	pushq  $0x52
    4eeb:	e9 c0 fa ff ff       	jmpq   49b0 <_init+0x20>

0000000000004ef0 <_ZSt9make_pairINSt7__cxx1112basic_stringIcSt11char_traitsIcESaIcEEES5_ESt4pairIT_T0_ES7_S8_@plt>:
    4ef0:	ff 25 ba 33 20 00    	jmpq   *0x2033ba(%rip)        # 2082b0 <_GLOBAL_OFFSET_TABLE_+0x2b0>
    4ef6:	68 53 00 00 00       	pushq  $0x53
    4efb:	e9 b0 fa ff ff       	jmpq   49b0 <_init+0x20>

0000000000004f00 <_ZNSt17_Rb_tree_iteratorISt4pairIKNSt7__cxx1112basic_stringIcSt11char_traitsIcESaIcEEES6_EEmmEv@plt>:
    4f00:	ff 25 b2 33 20 00    	jmpq   *0x2033b2(%rip)        # 2082b8 <_GLOBAL_OFFSET_TABLE_+0x2b8>
    4f06:	68 54 00 00 00       	pushq  $0x54
    4f0b:	e9 a0 fa ff ff       	jmpq   49b0 <_init+0x20>

0000000000004f10 <_ZNSt7__cxx1112basic_stringIcSt11char_traitsIcESaIcEEC1ERKS4_@plt>:
    4f10:	ff 25 aa 33 20 00    	jmpq   *0x2033aa(%rip)        # 2082c0 <_GLOBAL_OFFSET_TABLE_+0x2c0>
    4f16:	68 55 00 00 00       	pushq  $0x55
    4f1b:	e9 90 fa ff ff       	jmpq   49b0 <_init+0x20>

0000000000004f20 <_ZNSt7__cxx1112basic_stringIcSt11char_traitsIcESaIcEEC1EPKcRKS3_@plt>:
    4f20:	ff 25 a2 33 20 00    	jmpq   *0x2033a2(%rip)        # 2082c8 <_GLOBAL_OFFSET_TABLE_+0x2c8>
    4f26:	68 56 00 00 00       	pushq  $0x56
    4f2b:	e9 80 fa ff ff       	jmpq   49b0 <_init+0x20>

0000000000004f30 <_ZNKSt4lessINSt7__cxx1112basic_stringIcSt11char_traitsIcESaIcEEEEclERKS5_S8_@plt>:
    4f30:	ff 25 9a 33 20 00    	jmpq   *0x20339a(%rip)        # 2082d0 <_GLOBAL_OFFSET_TABLE_+0x2d0>
    4f36:	68 57 00 00 00       	pushq  $0x57
    4f3b:	e9 70 fa ff ff       	jmpq   49b0 <_init+0x20>

0000000000004f40 <_ZNSaIcEC1Ev@plt>:
    4f40:	ff 25 92 33 20 00    	jmpq   *0x203392(%rip)        # 2082d8 <_GLOBAL_OFFSET_TABLE_+0x2d8>
    4f46:	68 58 00 00 00       	pushq  $0x58
    4f4b:	e9 60 fa ff ff       	jmpq   49b0 <_init+0x20>

0000000000004f50 <_ZdlPvS_@plt>:
    4f50:	ff 25 8a 33 20 00    	jmpq   *0x20338a(%rip)        # 2082e0 <_GLOBAL_OFFSET_TABLE_+0x2e0>
    4f56:	68 59 00 00 00       	pushq  $0x59
    4f5b:	e9 50 fa ff ff       	jmpq   49b0 <_init+0x20>

0000000000004f60 <_ZNSt8_Rb_treeINSt7__cxx1112basic_stringIcSt11char_traitsIcESaIcEEESt4pairIKS5_S5_ESt10_Select1stIS8_ESt4lessIS5_ESaIS8_EE29_M_get_insert_hint_unique_posESt23_Rb_tree_const_iteratorIS8_ERS7_@plt>:
    4f60:	ff 25 82 33 20 00    	jmpq   *0x203382(%rip)        # 2082e8 <_GLOBAL_OFFSET_TABLE_+0x2e8>
    4f66:	68 5a 00 00 00       	pushq  $0x5a
    4f6b:	e9 40 fa ff ff       	jmpq   49b0 <_init+0x20>

0000000000004f70 <_Znwm@plt>:
    4f70:	ff 25 7a 33 20 00    	jmpq   *0x20337a(%rip)        # 2082f0 <_GLOBAL_OFFSET_TABLE_+0x2f0>
    4f76:	68 5b 00 00 00       	pushq  $0x5b
    4f7b:	e9 30 fa ff ff       	jmpq   49b0 <_init+0x20>

0000000000004f80 <_ZNSt3mapINSt7__cxx1112basic_stringIcSt11char_traitsIcESaIcEEES5_St4lessIS5_ESaISt4pairIKS5_S5_EEE11lower_boundERS9_@plt>:
    4f80:	ff 25 72 33 20 00    	jmpq   *0x203372(%rip)        # 2082f8 <_GLOBAL_OFFSET_TABLE_+0x2f8>
    4f86:	68 5c 00 00 00       	pushq  $0x5c
    4f8b:	e9 20 fa ff ff       	jmpq   49b0 <_init+0x20>

0000000000004f90 <_Unwind_Resume@plt>:
    4f90:	ff 25 6a 33 20 00    	jmpq   *0x20336a(%rip)        # 208300 <_GLOBAL_OFFSET_TABLE_+0x300>
    4f96:	68 5d 00 00 00       	pushq  $0x5d
    4f9b:	e9 10 fa ff ff       	jmpq   49b0 <_init+0x20>

0000000000004fa0 <_ZNSt8_Rb_treeINSt7__cxx1112basic_stringIcSt11char_traitsIcESaIcEEESt4pairIKS5_S5_ESt10_Select1stIS8_ESt4lessIS5_ESaIS8_EE6_S_keyEPKSt18_Rb_tree_node_base@plt>:
    4fa0:	ff 25 62 33 20 00    	jmpq   *0x203362(%rip)        # 208308 <_GLOBAL_OFFSET_TABLE_+0x308>
    4fa6:	68 5e 00 00 00       	pushq  $0x5e
    4fab:	e9 00 fa ff ff       	jmpq   49b0 <_init+0x20>

Disassembly of section .plt.got:

0000000000004fb0 <.plt.got>:
    4fb0:	ff 25 02 30 20 00    	jmpq   *0x203002(%rip)        # 207fb8 <_DYNAMIC+0x1e0>
    4fb6:	66 90                	xchg   %ax,%ax
    4fb8:	ff 25 22 30 20 00    	jmpq   *0x203022(%rip)        # 207fe0 <_DYNAMIC+0x208>
    4fbe:	66 90                	xchg   %ax,%ax

Disassembly of section .text:

0000000000004fc0 <deregister_tm_clones>:
    4fc0:	48 8d 3d 59 33 20 00 	lea    0x203359(%rip),%rdi        # 208320 <_edata>
    4fc7:	48 8d 05 59 33 20 00 	lea    0x203359(%rip),%rax        # 208327 <_ZStL8__ioinit+0x5>
    4fce:	55                   	push   %rbp
    4fcf:	48 29 f8             	sub    %rdi,%rax
    4fd2:	48 89 e5             	mov    %rsp,%rbp
    4fd5:	48 83 f8 0e          	cmp    $0xe,%rax
    4fd9:	76 15                	jbe    4ff0 <deregister_tm_clones+0x30>
    4fdb:	48 8b 05 ee 2f 20 00 	mov    0x202fee(%rip),%rax        # 207fd0 <_DYNAMIC+0x1f8>
    4fe2:	48 85 c0             	test   %rax,%rax
    4fe5:	74 09                	je     4ff0 <deregister_tm_clones+0x30>
    4fe7:	5d                   	pop    %rbp
    4fe8:	ff e0                	jmpq   *%rax
    4fea:	66 0f 1f 44 00 00    	nopw   0x0(%rax,%rax,1)
    4ff0:	5d                   	pop    %rbp
    4ff1:	c3                   	retq   
    4ff2:	0f 1f 40 00          	nopl   0x0(%rax)
    4ff6:	66 2e 0f 1f 84 00 00 	nopw   %cs:0x0(%rax,%rax,1)
    4ffd:	00 00 00 

0000000000005000 <register_tm_clones>:
    5000:	48 8d 3d 19 33 20 00 	lea    0x203319(%rip),%rdi        # 208320 <_edata>
    5007:	48 8d 35 12 33 20 00 	lea    0x203312(%rip),%rsi        # 208320 <_edata>
    500e:	55                   	push   %rbp
    500f:	48 29 fe             	sub    %rdi,%rsi
    5012:	48 89 e5             	mov    %rsp,%rbp
    5015:	48 c1 fe 03          	sar    $0x3,%rsi
    5019:	48 89 f0             	mov    %rsi,%rax
    501c:	48 c1 e8 3f          	shr    $0x3f,%rax
    5020:	48 01 c6             	add    %rax,%rsi
    5023:	48 d1 fe             	sar    %rsi
    5026:	74 18                	je     5040 <register_tm_clones+0x40>
    5028:	48 8b 05 a9 2f 20 00 	mov    0x202fa9(%rip),%rax        # 207fd8 <_DYNAMIC+0x200>
    502f:	48 85 c0             	test   %rax,%rax
    5032:	74 0c                	je     5040 <register_tm_clones+0x40>
    5034:	5d                   	pop    %rbp
    5035:	ff e0                	jmpq   *%rax
    5037:	66 0f 1f 84 00 00 00 	nopw   0x0(%rax,%rax,1)
    503e:	00 00 
    5040:	5d                   	pop    %rbp
    5041:	c3                   	retq   
    5042:	0f 1f 40 00          	nopl   0x0(%rax)
    5046:	66 2e 0f 1f 84 00 00 	nopw   %cs:0x0(%rax,%rax,1)
    504d:	00 00 00 

0000000000005050 <__do_global_dtors_aux>:
    5050:	80 3d c9 32 20 00 00 	cmpb   $0x0,0x2032c9(%rip)        # 208320 <_edata>
    5057:	75 27                	jne    5080 <__do_global_dtors_aux+0x30>
    5059:	48 83 3d 7f 2f 20 00 	cmpq   $0x0,0x202f7f(%rip)        # 207fe0 <_DYNAMIC+0x208>
    5060:	00 
    5061:	55                   	push   %rbp
    5062:	48 89 e5             	mov    %rsp,%rbp
    5065:	74 0c                	je     5073 <__do_global_dtors_aux+0x23>
    5067:	48 8b 3d a2 32 20 00 	mov    0x2032a2(%rip),%rdi        # 208310 <__dso_handle>
    506e:	e8 45 ff ff ff       	callq  4fb8 <_ZNSt8_Rb_treeINSt7__cxx1112basic_stringIcSt11char_traitsIcESaIcEEESt4pairIKS5_S5_ESt10_Select1stIS8_ESt4lessIS5_ESaIS8_EE6_S_keyEPKSt18_Rb_tree_node_base@plt+0x18>
    5073:	e8 48 ff ff ff       	callq  4fc0 <deregister_tm_clones>
    5078:	5d                   	pop    %rbp
    5079:	c6 05 a0 32 20 00 01 	movb   $0x1,0x2032a0(%rip)        # 208320 <_edata>
    5080:	f3 c3                	repz retq 
    5082:	0f 1f 40 00          	nopl   0x0(%rax)
    5086:	66 2e 0f 1f 84 00 00 	nopw   %cs:0x0(%rax,%rax,1)
    508d:	00 00 00 

0000000000005090 <frame_dummy>:
    5090:	48 8d 3d 39 2d 20 00 	lea    0x202d39(%rip),%rdi        # 207dd0 <__JCR_END__>
    5097:	48 83 3f 00          	cmpq   $0x0,(%rdi)
    509b:	75 0b                	jne    50a8 <frame_dummy+0x18>
    509d:	e9 5e ff ff ff       	jmpq   5000 <register_tm_clones>
    50a2:	66 0f 1f 44 00 00    	nopw   0x0(%rax,%rax,1)
    50a8:	48 8b 05 11 2f 20 00 	mov    0x202f11(%rip),%rax        # 207fc0 <_DYNAMIC+0x1e8>
    50af:	48 85 c0             	test   %rax,%rax
    50b2:	74 e9                	je     509d <frame_dummy+0xd>
    50b4:	55                   	push   %rbp
    50b5:	48 89 e5             	mov    %rsp,%rbp
    50b8:	ff d0                	callq  *%rax
    50ba:	5d                   	pop    %rbp
    50bb:	e9 40 ff ff ff       	jmpq   5000 <register_tm_clones>

00000000000050c0 <_Z3getNSt7__cxx1112basic_stringIcSt11char_traitsIcESaIcEEEPi>:
    50c0:	55                   	push   %rbp
    50c1:	48 89 e5             	mov    %rsp,%rbp
    50c4:	53                   	push   %rbx
    50c5:	48 83 ec 38          	sub    $0x38,%rsp
    50c9:	48 89 7d d8          	mov    %rdi,-0x28(%rbp)
    50cd:	48 89 75 d0          	mov    %rsi,-0x30(%rbp)
    50d1:	48 89 55 c8          	mov    %rdx,-0x38(%rbp)
    50d5:	64 48 8b 04 25 28 00 	mov    %fs:0x28,%rax
    50dc:	00 00 
    50de:	48 89 45 e8          	mov    %rax,-0x18(%rbp)
    50e2:	31 c0                	xor    %eax,%eax
    50e4:	48 8b 45 d0          	mov    -0x30(%rbp),%rax
    50e8:	48 89 c7             	mov    %rax,%rdi
    50eb:	e8 40 fd ff ff       	callq  4e30 <_ZNKSt7__cxx1112basic_stringIcSt11char_traitsIcESaIcEE4sizeEv@plt>
    50f0:	48 83 f8 14          	cmp    $0x14,%rax
    50f4:	0f 97 c0             	seta   %al
    50f7:	84 c0                	test   %al,%al
    50f9:	74 5c                	je     5157 <_Z3getNSt7__cxx1112basic_stringIcSt11char_traitsIcESaIcEEEPi+0x97>
    50fb:	48 8d 35 b3 19 00 00 	lea    0x19b3(%rip),%rsi        # 6ab5 <_fini+0x9>
    5102:	48 8b 05 e7 2e 20 00 	mov    0x202ee7(%rip),%rax        # 207ff0 <_DYNAMIC+0x218>
    5109:	48 89 c7             	mov    %rax,%rdi
    510c:	e8 2f fa ff ff       	callq  4b40 <_ZStlsISt11char_traitsIcEERSt13basic_ostreamIcT_ES5_PKc@plt>
    5111:	48 89 c2             	mov    %rax,%rdx
    5114:	48 8b 05 dd 2e 20 00 	mov    0x202edd(%rip),%rax        # 207ff8 <_DYNAMIC+0x220>
    511b:	48 89 c6             	mov    %rax,%rsi
    511e:	48 89 d7             	mov    %rdx,%rdi
    5121:	e8 2a fd ff ff       	callq  4e50 <_ZNSolsEPFRSoS_E@plt>
    5126:	48 8d 45 e7          	lea    -0x19(%rbp),%rax
    512a:	48 89 c7             	mov    %rax,%rdi
    512d:	e8 0e fe ff ff       	callq  4f40 <_ZNSaIcEC1Ev@plt>
    5132:	48 8d 55 e7          	lea    -0x19(%rbp),%rdx
    5136:	48 8b 45 d8          	mov    -0x28(%rbp),%rax
    513a:	48 8d 35 8a 19 00 00 	lea    0x198a(%rip),%rsi        # 6acb <_fini+0x1f>
    5141:	48 89 c7             	mov    %rax,%rdi
    5144:	e8 d7 fd ff ff       	callq  4f20 <_ZNSt7__cxx1112basic_stringIcSt11char_traitsIcESaIcEEC1EPKcRKS3_@plt>
    5149:	48 8d 45 e7          	lea    -0x19(%rbp),%rax
    514d:	48 89 c7             	mov    %rax,%rdi
    5150:	e8 9b fc ff ff       	callq  4df0 <_ZNSaIcED1Ev@plt>
    5155:	eb 44                	jmp    519b <_Z3getNSt7__cxx1112basic_stringIcSt11char_traitsIcESaIcEEEPi+0xdb>
    5157:	48 8b 45 d0          	mov    -0x30(%rbp),%rax
    515b:	48 89 c6             	mov    %rax,%rsi
    515e:	48 8b 05 83 2e 20 00 	mov    0x202e83(%rip),%rax        # 207fe8 <_DYNAMIC+0x210>
    5165:	48 89 c7             	mov    %rax,%rdi
    5168:	e8 43 fb ff ff       	callq  4cb0 <_ZNSt3mapINSt7__cxx1112basic_stringIcSt11char_traitsIcESaIcEEES5_St4lessIS5_ESaISt4pairIKS5_S5_EEEixERS9_@plt>
    516d:	48 89 c2             	mov    %rax,%rdx
    5170:	48 8b 45 d8          	mov    -0x28(%rbp),%rax
    5174:	48 89 d6             	mov    %rdx,%rsi
    5177:	48 89 c7             	mov    %rax,%rdi
    517a:	e8 91 fd ff ff       	callq  4f10 <_ZNSt7__cxx1112basic_stringIcSt11char_traitsIcESaIcEEC1ERKS4_@plt>
    517f:	eb 1a                	jmp    519b <_Z3getNSt7__cxx1112basic_stringIcSt11char_traitsIcESaIcEEEPi+0xdb>
    5181:	48 89 c3             	mov    %rax,%rbx
    5184:	48 8d 45 e7          	lea    -0x19(%rbp),%rax
    5188:	48 89 c7             	mov    %rax,%rdi
    518b:	e8 60 fc ff ff       	callq  4df0 <_ZNSaIcED1Ev@plt>
    5190:	48 89 d8             	mov    %rbx,%rax
    5193:	48 89 c7             	mov    %rax,%rdi
    5196:	e8 f5 fd ff ff       	callq  4f90 <_Unwind_Resume@plt>
    519b:	48 8b 45 d8          	mov    -0x28(%rbp),%rax
    519f:	48 8b 4d e8          	mov    -0x18(%rbp),%rcx
    51a3:	64 48 33 0c 25 28 00 	xor    %fs:0x28,%rcx
    51aa:	00 00 
    51ac:	74 05                	je     51b3 <_Z3getNSt7__cxx1112basic_stringIcSt11char_traitsIcESaIcEEEPi+0xf3>
    51ae:	e8 0d fc ff ff       	callq  4dc0 <__stack_chk_fail@plt>
    51b3:	48 83 c4 38          	add    $0x38,%rsp
    51b7:	5b                   	pop    %rbx
    51b8:	5d                   	pop    %rbp
    51b9:	c3                   	retq   

00000000000051ba <_Z41__static_initialization_and_destruction_0ii>:
    51ba:	55                   	push   %rbp
    51bb:	48 89 e5             	mov    %rsp,%rbp
    51be:	48 83 ec 10          	sub    $0x10,%rsp
    51c2:	89 7d fc             	mov    %edi,-0x4(%rbp)
    51c5:	89 75 f8             	mov    %esi,-0x8(%rbp)
    51c8:	83 7d fc 01          	cmpl   $0x1,-0x4(%rbp)
    51cc:	75 32                	jne    5200 <_Z41__static_initialization_and_destruction_0ii+0x46>
    51ce:	81 7d f8 ff ff 00 00 	cmpl   $0xffff,-0x8(%rbp)
    51d5:	75 29                	jne    5200 <_Z41__static_initialization_and_destruction_0ii+0x46>
    51d7:	48 8d 3d 43 31 20 00 	lea    0x203143(%rip),%rdi        # 208321 <_ZStL8__ioinit>
    51de:	e8 ad f8 ff ff       	callq  4a90 <_ZNSt8ios_base4InitC1Ev@plt>
    51e3:	48 8d 15 26 31 20 00 	lea    0x203126(%rip),%rdx        # 208310 <__dso_handle>
    51ea:	48 8d 35 30 31 20 00 	lea    0x203130(%rip),%rsi        # 208321 <_ZStL8__ioinit>
    51f1:	48 8b 05 d0 2d 20 00 	mov    0x202dd0(%rip),%rax        # 207fc8 <_DYNAMIC+0x1f0>
    51f8:	48 89 c7             	mov    %rax,%rdi
    51fb:	e8 f0 f8 ff ff       	callq  4af0 <__cxa_atexit@plt>
    5200:	90                   	nop
    5201:	c9                   	leaveq 
    5202:	c3                   	retq   

0000000000005203 <_GLOBAL__sub_I_get.cpp>:
    5203:	55                   	push   %rbp
    5204:	48 89 e5             	mov    %rsp,%rbp
    5207:	be ff ff 00 00       	mov    $0xffff,%esi
    520c:	bf 01 00 00 00       	mov    $0x1,%edi
    5211:	e8 a4 ff ff ff       	callq  51ba <_Z41__static_initialization_and_destruction_0ii>
    5216:	5d                   	pop    %rbp
    5217:	c3                   	retq   

0000000000005218 <_ZnwmPv>:
    5218:	55                   	push   %rbp
    5219:	48 89 e5             	mov    %rsp,%rbp
    521c:	48 89 7d f8          	mov    %rdi,-0x8(%rbp)
    5220:	48 89 75 f0          	mov    %rsi,-0x10(%rbp)
    5224:	48 8b 45 f0          	mov    -0x10(%rbp),%rax
    5228:	5d                   	pop    %rbp
    5229:	c3                   	retq   

000000000000522a <_ZdlPvS_>:
    522a:	55                   	push   %rbp
    522b:	48 89 e5             	mov    %rsp,%rbp
    522e:	48 89 7d f8          	mov    %rdi,-0x8(%rbp)
    5232:	48 89 75 f0          	mov    %rsi,-0x10(%rbp)
    5236:	90                   	nop
    5237:	5d                   	pop    %rbp
    5238:	c3                   	retq   
    5239:	90                   	nop

000000000000523a <_ZNSt4pairIKNSt7__cxx1112basic_stringIcSt11char_traitsIcESaIcEEES5_ED1Ev>:
    523a:	55                   	push   %rbp
    523b:	48 89 e5             	mov    %rsp,%rbp
    523e:	53                   	push   %rbx
    523f:	48 83 ec 18          	sub    $0x18,%rsp
    5243:	48 89 7d e8          	mov    %rdi,-0x18(%rbp)
    5247:	48 8b 45 e8          	mov    -0x18(%rbp),%rax
    524b:	48 83 c0 20          	add    $0x20,%rax
    524f:	48 89 c7             	mov    %rax,%rdi
    5252:	e8 59 f9 ff ff       	callq  4bb0 <_ZNSt7__cxx1112basic_stringIcSt11char_traitsIcESaIcEED1Ev@plt>
    5257:	48 8b 45 e8          	mov    -0x18(%rbp),%rax
    525b:	48 89 c7             	mov    %rax,%rdi
    525e:	e8 4d f9 ff ff       	callq  4bb0 <_ZNSt7__cxx1112basic_stringIcSt11char_traitsIcESaIcEED1Ev@plt>
    5263:	eb 1a                	jmp    527f <_ZNSt4pairIKNSt7__cxx1112basic_stringIcSt11char_traitsIcESaIcEEES5_ED1Ev+0x45>
    5265:	48 89 c3             	mov    %rax,%rbx
    5268:	48 8b 45 e8          	mov    -0x18(%rbp),%rax
    526c:	48 89 c7             	mov    %rax,%rdi
    526f:	e8 3c f9 ff ff       	callq  4bb0 <_ZNSt7__cxx1112basic_stringIcSt11char_traitsIcESaIcEED1Ev@plt>
    5274:	48 89 d8             	mov    %rbx,%rax
    5277:	48 89 c7             	mov    %rax,%rdi
    527a:	e8 11 fd ff ff       	callq  4f90 <_Unwind_Resume@plt>
    527f:	48 83 c4 18          	add    $0x18,%rsp
    5283:	5b                   	pop    %rbx
    5284:	5d                   	pop    %rbp
    5285:	c3                   	retq   

0000000000005286 <_ZNSt3mapINSt7__cxx1112basic_stringIcSt11char_traitsIcESaIcEEES5_St4lessIS5_ESaISt4pairIKS5_S5_EEEixERS9_>:
    5286:	55                   	push   %rbp
    5287:	48 89 e5             	mov    %rsp,%rbp
    528a:	41 55                	push   %r13
    528c:	41 54                	push   %r12
    528e:	53                   	push   %rbx
    528f:	48 81 ec b8 00 00 00 	sub    $0xb8,%rsp
    5296:	48 89 bd 38 ff ff ff 	mov    %rdi,-0xc8(%rbp)
    529d:	48 89 b5 30 ff ff ff 	mov    %rsi,-0xd0(%rbp)
    52a4:	64 48 8b 04 25 28 00 	mov    %fs:0x28,%rax
    52ab:	00 00 
    52ad:	48 89 45 d8          	mov    %rax,-0x28(%rbp)
    52b1:	31 c0                	xor    %eax,%eax
    52b3:	48 8b 95 30 ff ff ff 	mov    -0xd0(%rbp),%rdx
    52ba:	48 8b 85 38 ff ff ff 	mov    -0xc8(%rbp),%rax
    52c1:	48 89 d6             	mov    %rdx,%rsi
    52c4:	48 89 c7             	mov    %rax,%rdi
    52c7:	e8 b4 fc ff ff       	callq  4f80 <_ZNSt3mapINSt7__cxx1112basic_stringIcSt11char_traitsIcESaIcEEES5_St4lessIS5_ESaISt4pairIKS5_S5_EEE11lower_boundERS9_@plt>
    52cc:	48 89 85 50 ff ff ff 	mov    %rax,-0xb0(%rbp)
    52d3:	bb 00 00 00 00       	mov    $0x0,%ebx
    52d8:	41 bc 00 00 00 00    	mov    $0x0,%r12d
    52de:	48 8b 85 38 ff ff ff 	mov    -0xc8(%rbp),%rax
    52e5:	48 89 c7             	mov    %rax,%rdi
    52e8:	e8 d3 f6 ff ff       	callq  49c0 <_ZNSt3mapINSt7__cxx1112basic_stringIcSt11char_traitsIcESaIcEEES5_St4lessIS5_ESaISt4pairIKS5_S5_EEE3endEv@plt>
    52ed:	48 89 85 60 ff ff ff 	mov    %rax,-0xa0(%rbp)
    52f4:	bb 01 00 00 00       	mov    $0x1,%ebx
    52f9:	48 8d 95 60 ff ff ff 	lea    -0xa0(%rbp),%rdx
    5300:	48 8d 85 50 ff ff ff 	lea    -0xb0(%rbp),%rax
    5307:	48 89 d6             	mov    %rdx,%rsi
    530a:	48 89 c7             	mov    %rax,%rdi
    530d:	e8 ce f8 ff ff       	callq  4be0 <_ZNKSt17_Rb_tree_iteratorISt4pairIKNSt7__cxx1112basic_stringIcSt11char_traitsIcESaIcEEES6_EEeqERKS9_@plt>
    5312:	84 c0                	test   %al,%al
    5314:	75 47                	jne    535d <_ZNSt3mapINSt7__cxx1112basic_stringIcSt11char_traitsIcESaIcEEES5_St4lessIS5_ESaISt4pairIKS5_S5_EEEixERS9_+0xd7>
    5316:	48 8d 85 50 ff ff ff 	lea    -0xb0(%rbp),%rax
    531d:	48 89 c7             	mov    %rax,%rdi
    5320:	e8 2b fa ff ff       	callq  4d50 <_ZNKSt17_Rb_tree_iteratorISt4pairIKNSt7__cxx1112basic_stringIcSt11char_traitsIcESaIcEEES6_EEdeEv@plt>
    5325:	49 89 c5             	mov    %rax,%r13
    5328:	48 8b 85 38 ff ff ff 	mov    -0xc8(%rbp),%rax
    532f:	48 89 c7             	mov    %rax,%rdi
    5332:	e8 19 f7 ff ff       	callq  4a50 <_ZNKSt3mapINSt7__cxx1112basic_stringIcSt11char_traitsIcESaIcEEES5_St4lessIS5_ESaISt4pairIKS5_S5_EEE8key_compEv@plt>
    5337:	41 bc 01 00 00 00    	mov    $0x1,%r12d
    533d:	48 8b 8d 30 ff ff ff 	mov    -0xd0(%rbp),%rcx
    5344:	48 8d 85 4f ff ff ff 	lea    -0xb1(%rbp),%rax
    534b:	4c 89 ea             	mov    %r13,%rdx
    534e:	48 89 ce             	mov    %rcx,%rsi
    5351:	48 89 c7             	mov    %rax,%rdi
    5354:	e8 d7 fb ff ff       	callq  4f30 <_ZNKSt4lessINSt7__cxx1112basic_stringIcSt11char_traitsIcESaIcEEEEclERKS5_S8_@plt>
    5359:	84 c0                	test   %al,%al
    535b:	74 07                	je     5364 <_ZNSt3mapINSt7__cxx1112basic_stringIcSt11char_traitsIcESaIcEEES5_St4lessIS5_ESaISt4pairIKS5_S5_EEEixERS9_+0xde>
    535d:	b8 01 00 00 00       	mov    $0x1,%eax
    5362:	eb 05                	jmp    5369 <_ZNSt3mapINSt7__cxx1112basic_stringIcSt11char_traitsIcESaIcEEES5_St4lessIS5_ESaISt4pairIKS5_S5_EEEixERS9_+0xe3>
    5364:	b8 00 00 00 00       	mov    $0x0,%eax
    5369:	45 84 e4             	test   %r12b,%r12b
    536c:	84 db                	test   %bl,%bl
    536e:	84 c0                	test   %al,%al
    5370:	74 6b                	je     53dd <_ZNSt3mapINSt7__cxx1112basic_stringIcSt11char_traitsIcESaIcEEES5_St4lessIS5_ESaISt4pairIKS5_S5_EEEixERS9_+0x157>
    5372:	48 8d 85 70 ff ff ff 	lea    -0x90(%rbp),%rax
    5379:	48 89 c7             	mov    %rax,%rdi
    537c:	e8 df f7 ff ff       	callq  4b60 <_ZNSt7__cxx1112basic_stringIcSt11char_traitsIcESaIcEEC1Ev@plt>
    5381:	48 8d 95 70 ff ff ff 	lea    -0x90(%rbp),%rdx
    5388:	48 8b 8d 30 ff ff ff 	mov    -0xd0(%rbp),%rcx
    538f:	48 8d 45 90          	lea    -0x70(%rbp),%rax
    5393:	48 89 ce             	mov    %rcx,%rsi
    5396:	48 89 c7             	mov    %rax,%rdi
    5399:	e8 02 fa ff ff       	callq  4da0 <_ZNSt4pairIKNSt7__cxx1112basic_stringIcSt11char_traitsIcESaIcEEES5_EC1ERS6_S8_@plt>
    539e:	48 8d 55 90          	lea    -0x70(%rbp),%rdx
    53a2:	48 8b 8d 50 ff ff ff 	mov    -0xb0(%rbp),%rcx
    53a9:	48 8b 85 38 ff ff ff 	mov    -0xc8(%rbp),%rax
    53b0:	48 89 ce             	mov    %rcx,%rsi
    53b3:	48 89 c7             	mov    %rax,%rdi
    53b6:	e8 e5 f6 ff ff       	callq  4aa0 <_ZNSt3mapINSt7__cxx1112basic_stringIcSt11char_traitsIcESaIcEEES5_St4lessIS5_ESaISt4pairIKS5_S5_EEE6insertESt17_Rb_tree_iteratorISA_ERKSA_@plt>
    53bb:	48 89 85 50 ff ff ff 	mov    %rax,-0xb0(%rbp)
    53c2:	48 8d 45 90          	lea    -0x70(%rbp),%rax
    53c6:	48 89 c7             	mov    %rax,%rdi
    53c9:	e8 e2 f9 ff ff       	callq  4db0 <_ZNSt4pairIKNSt7__cxx1112basic_stringIcSt11char_traitsIcESaIcEEES5_ED1Ev@plt>
    53ce:	48 8d 85 70 ff ff ff 	lea    -0x90(%rbp),%rax
    53d5:	48 89 c7             	mov    %rax,%rdi
    53d8:	e8 d3 f7 ff ff       	callq  4bb0 <_ZNSt7__cxx1112basic_stringIcSt11char_traitsIcESaIcEED1Ev@plt>
    53dd:	48 8d 85 50 ff ff ff 	lea    -0xb0(%rbp),%rax
    53e4:	48 89 c7             	mov    %rax,%rdi
    53e7:	e8 64 f9 ff ff       	callq  4d50 <_ZNKSt17_Rb_tree_iteratorISt4pairIKNSt7__cxx1112basic_stringIcSt11char_traitsIcESaIcEEES6_EEdeEv@plt>
    53ec:	48 83 c0 20          	add    $0x20,%rax
    53f0:	48 8b 4d d8          	mov    -0x28(%rbp),%rcx
    53f4:	64 48 33 0c 25 28 00 	xor    %fs:0x28,%rcx
    53fb:	00 00 
    53fd:	74 43                	je     5442 <_ZNSt3mapINSt7__cxx1112basic_stringIcSt11char_traitsIcESaIcEEES5_St4lessIS5_ESaISt4pairIKS5_S5_EEEixERS9_+0x1bc>
    53ff:	eb 3c                	jmp    543d <_ZNSt3mapINSt7__cxx1112basic_stringIcSt11char_traitsIcESaIcEEES5_St4lessIS5_ESaISt4pairIKS5_S5_EEEixERS9_+0x1b7>
    5401:	45 84 e4             	test   %r12b,%r12b
    5404:	84 db                	test   %bl,%bl
    5406:	90                   	nop
    5407:	48 89 c7             	mov    %rax,%rdi
    540a:	e8 81 fb ff ff       	callq  4f90 <_Unwind_Resume@plt>
    540f:	48 89 c3             	mov    %rax,%rbx
    5412:	48 8d 45 90          	lea    -0x70(%rbp),%rax
    5416:	48 89 c7             	mov    %rax,%rdi
    5419:	e8 92 f9 ff ff       	callq  4db0 <_ZNSt4pairIKNSt7__cxx1112basic_stringIcSt11char_traitsIcESaIcEEES5_ED1Ev@plt>
    541e:	eb 03                	jmp    5423 <_ZNSt3mapINSt7__cxx1112basic_stringIcSt11char_traitsIcESaIcEEES5_St4lessIS5_ESaISt4pairIKS5_S5_EEEixERS9_+0x19d>
    5420:	48 89 c3             	mov    %rax,%rbx
    5423:	48 8d 85 70 ff ff ff 	lea    -0x90(%rbp),%rax
    542a:	48 89 c7             	mov    %rax,%rdi
    542d:	e8 7e f7 ff ff       	callq  4bb0 <_ZNSt7__cxx1112basic_stringIcSt11char_traitsIcESaIcEED1Ev@plt>
    5432:	48 89 d8             	mov    %rbx,%rax
    5435:	48 89 c7             	mov    %rax,%rdi
    5438:	e8 53 fb ff ff       	callq  4f90 <_Unwind_Resume@plt>
    543d:	e8 7e f9 ff ff       	callq  4dc0 <__stack_chk_fail@plt>
    5442:	48 81 c4 b8 00 00 00 	add    $0xb8,%rsp
    5449:	5b                   	pop    %rbx
    544a:	41 5c                	pop    %r12
    544c:	41 5d                	pop    %r13
    544e:	5d                   	pop    %rbp
    544f:	c3                   	retq   

0000000000005450 <_ZNSt3mapINSt7__cxx1112basic_stringIcSt11char_traitsIcESaIcEEES5_St4lessIS5_ESaISt4pairIKS5_S5_EEE11lower_boundERS9_>:
    5450:	55                   	push   %rbp
    5451:	48 89 e5             	mov    %rsp,%rbp
    5454:	48 83 ec 10          	sub    $0x10,%rsp
    5458:	48 89 7d f8          	mov    %rdi,-0x8(%rbp)
    545c:	48 89 75 f0          	mov    %rsi,-0x10(%rbp)
    5460:	48 8b 45 f8          	mov    -0x8(%rbp),%rax
    5464:	48 8b 55 f0          	mov    -0x10(%rbp),%rdx
    5468:	48 89 d6             	mov    %rdx,%rsi
    546b:	48 89 c7             	mov    %rax,%rdi
    546e:	e8 bd f8 ff ff       	callq  4d30 <_ZNSt8_Rb_treeINSt7__cxx1112basic_stringIcSt11char_traitsIcESaIcEEESt4pairIKS5_S5_ESt10_Select1stIS8_ESt4lessIS5_ESaIS8_EE11lower_boundERS7_@plt>
    5473:	c9                   	leaveq 
    5474:	c3                   	retq   
    5475:	90                   	nop

0000000000005476 <_ZNSt3mapINSt7__cxx1112basic_stringIcSt11char_traitsIcESaIcEEES5_St4lessIS5_ESaISt4pairIKS5_S5_EEE3endEv>:
    5476:	55                   	push   %rbp
    5477:	48 89 e5             	mov    %rsp,%rbp
    547a:	48 83 ec 10          	sub    $0x10,%rsp
    547e:	48 89 7d f8          	mov    %rdi,-0x8(%rbp)
    5482:	48 8b 45 f8          	mov    -0x8(%rbp),%rax
    5486:	48 89 c7             	mov    %rax,%rdi
    5489:	e8 c2 f7 ff ff       	callq  4c50 <_ZNSt8_Rb_treeINSt7__cxx1112basic_stringIcSt11char_traitsIcESaIcEEESt4pairIKS5_S5_ESt10_Select1stIS8_ESt4lessIS5_ESaIS8_EE3endEv@plt>
    548e:	c9                   	leaveq 
    548f:	c3                   	retq   

0000000000005490 <_ZNKSt17_Rb_tree_iteratorISt4pairIKNSt7__cxx1112basic_stringIcSt11char_traitsIcESaIcEEES6_EEeqERKS9_>:
    5490:	55                   	push   %rbp
    5491:	48 89 e5             	mov    %rsp,%rbp
    5494:	48 89 7d f8          	mov    %rdi,-0x8(%rbp)
    5498:	48 89 75 f0          	mov    %rsi,-0x10(%rbp)
    549c:	48 8b 45 f8          	mov    -0x8(%rbp),%rax
    54a0:	48 8b 10             	mov    (%rax),%rdx
    54a3:	48 8b 45 f0          	mov    -0x10(%rbp),%rax
    54a7:	48 8b 00             	mov    (%rax),%rax
    54aa:	48 39 c2             	cmp    %rax,%rdx
    54ad:	0f 94 c0             	sete   %al
    54b0:	5d                   	pop    %rbp
    54b1:	c3                   	retq   

00000000000054b2 <_ZNKSt3mapINSt7__cxx1112basic_stringIcSt11char_traitsIcESaIcEEES5_St4lessIS5_ESaISt4pairIKS5_S5_EEE8key_compEv>:
    54b2:	55                   	push   %rbp
    54b3:	48 89 e5             	mov    %rsp,%rbp
    54b6:	53                   	push   %rbx
    54b7:	48 83 ec 18          	sub    $0x18,%rsp
    54bb:	48 89 7d e8          	mov    %rdi,-0x18(%rbp)
    54bf:	48 8b 45 e8          	mov    -0x18(%rbp),%rax
    54c3:	48 89 c7             	mov    %rax,%rdi
    54c6:	e8 25 f7 ff ff       	callq  4bf0 <_ZNKSt8_Rb_treeINSt7__cxx1112basic_stringIcSt11char_traitsIcESaIcEEESt4pairIKS5_S5_ESt10_Select1stIS8_ESt4lessIS5_ESaIS8_EE8key_compEv@plt>
    54cb:	89 d8                	mov    %ebx,%eax
    54cd:	48 83 c4 18          	add    $0x18,%rsp
    54d1:	5b                   	pop    %rbx
    54d2:	5d                   	pop    %rbp
    54d3:	c3                   	retq   

00000000000054d4 <_ZNKSt17_Rb_tree_iteratorISt4pairIKNSt7__cxx1112basic_stringIcSt11char_traitsIcESaIcEEES6_EEdeEv>:
    54d4:	55                   	push   %rbp
    54d5:	48 89 e5             	mov    %rsp,%rbp
    54d8:	48 83 ec 10          	sub    $0x10,%rsp
    54dc:	48 89 7d f8          	mov    %rdi,-0x8(%rbp)
    54e0:	48 8b 45 f8          	mov    -0x8(%rbp),%rax
    54e4:	48 8b 00             	mov    (%rax),%rax
    54e7:	48 89 c7             	mov    %rax,%rdi
    54ea:	e8 d1 f7 ff ff       	callq  4cc0 <_ZNSt13_Rb_tree_nodeISt4pairIKNSt7__cxx1112basic_stringIcSt11char_traitsIcESaIcEEES6_EE9_M_valptrEv@plt>
    54ef:	c9                   	leaveq 
    54f0:	c3                   	retq   
    54f1:	90                   	nop

00000000000054f2 <_ZNKSt4lessINSt7__cxx1112basic_stringIcSt11char_traitsIcESaIcEEEEclERKS5_S8_>:
    54f2:	55                   	push   %rbp
    54f3:	48 89 e5             	mov    %rsp,%rbp
    54f6:	48 83 ec 20          	sub    $0x20,%rsp
    54fa:	48 89 7d f8          	mov    %rdi,-0x8(%rbp)
    54fe:	48 89 75 f0          	mov    %rsi,-0x10(%rbp)
    5502:	48 89 55 e8          	mov    %rdx,-0x18(%rbp)
    5506:	48 8b 55 e8          	mov    -0x18(%rbp),%rdx
    550a:	48 8b 45 f0          	mov    -0x10(%rbp),%rax
    550e:	48 89 d6             	mov    %rdx,%rsi
    5511:	48 89 c7             	mov    %rax,%rdi
    5514:	e8 77 f8 ff ff       	callq  4d90 <_ZStltIcSt11char_traitsIcESaIcEEbRKNSt7__cxx1112basic_stringIT_T0_T1_EESA_@plt>
    5519:	c9                   	leaveq 
    551a:	c3                   	retq   
    551b:	90                   	nop

000000000000551c <_ZNSt4pairIKNSt7__cxx1112basic_stringIcSt11char_traitsIcESaIcEEES5_EC1ERS6_S8_>:
    551c:	55                   	push   %rbp
    551d:	48 89 e5             	mov    %rsp,%rbp
    5520:	53                   	push   %rbx
    5521:	48 83 ec 28          	sub    $0x28,%rsp
    5525:	48 89 7d e8          	mov    %rdi,-0x18(%rbp)
    5529:	48 89 75 e0          	mov    %rsi,-0x20(%rbp)
    552d:	48 89 55 d8          	mov    %rdx,-0x28(%rbp)
    5531:	48 8b 45 e8          	mov    -0x18(%rbp),%rax
    5535:	48 8b 55 e0          	mov    -0x20(%rbp),%rdx
    5539:	48 89 d6             	mov    %rdx,%rsi
    553c:	48 89 c7             	mov    %rax,%rdi
    553f:	e8 cc f9 ff ff       	callq  4f10 <_ZNSt7__cxx1112basic_stringIcSt11char_traitsIcESaIcEEC1ERKS4_@plt>
    5544:	48 8b 45 e8          	mov    -0x18(%rbp),%rax
    5548:	48 8d 50 20          	lea    0x20(%rax),%rdx
    554c:	48 8b 45 d8          	mov    -0x28(%rbp),%rax
    5550:	48 89 c6             	mov    %rax,%rsi
    5553:	48 89 d7             	mov    %rdx,%rdi
    5556:	e8 b5 f9 ff ff       	callq  4f10 <_ZNSt7__cxx1112basic_stringIcSt11char_traitsIcESaIcEEC1ERKS4_@plt>
    555b:	eb 1a                	jmp    5577 <_ZNSt4pairIKNSt7__cxx1112basic_stringIcSt11char_traitsIcESaIcEEES5_EC1ERS6_S8_+0x5b>
    555d:	48 89 c3             	mov    %rax,%rbx
    5560:	48 8b 45 e8          	mov    -0x18(%rbp),%rax
    5564:	48 89 c7             	mov    %rax,%rdi
    5567:	e8 44 f6 ff ff       	callq  4bb0 <_ZNSt7__cxx1112basic_stringIcSt11char_traitsIcESaIcEED1Ev@plt>
    556c:	48 89 d8             	mov    %rbx,%rax
    556f:	48 89 c7             	mov    %rax,%rdi
    5572:	e8 19 fa ff ff       	callq  4f90 <_Unwind_Resume@plt>
    5577:	48 83 c4 28          	add    $0x28,%rsp
    557b:	5b                   	pop    %rbx
    557c:	5d                   	pop    %rbp
    557d:	c3                   	retq   

000000000000557e <_ZNSt3mapINSt7__cxx1112basic_stringIcSt11char_traitsIcESaIcEEES5_St4lessIS5_ESaISt4pairIKS5_S5_EEE6insertESt17_Rb_tree_iteratorISA_ERKSA_>:
    557e:	55                   	push   %rbp
    557f:	48 89 e5             	mov    %rsp,%rbp
    5582:	48 83 ec 30          	sub    $0x30,%rsp
    5586:	48 89 7d e8          	mov    %rdi,-0x18(%rbp)
    558a:	48 89 75 e0          	mov    %rsi,-0x20(%rbp)
    558e:	48 89 55 d8          	mov    %rdx,-0x28(%rbp)
    5592:	64 48 8b 04 25 28 00 	mov    %fs:0x28,%rax
    5599:	00 00 
    559b:	48 89 45 f8          	mov    %rax,-0x8(%rbp)
    559f:	31 c0                	xor    %eax,%eax
    55a1:	48 8d 55 e0          	lea    -0x20(%rbp),%rdx
    55a5:	48 8d 45 f0          	lea    -0x10(%rbp),%rax
    55a9:	48 89 d6             	mov    %rdx,%rsi
    55ac:	48 89 c7             	mov    %rax,%rdi
    55af:	e8 8c f6 ff ff       	callq  4c40 <_ZNSt23_Rb_tree_const_iteratorISt4pairIKNSt7__cxx1112basic_stringIcSt11char_traitsIcESaIcEEES6_EEC1ERKSt17_Rb_tree_iteratorIS8_E@plt>
    55b4:	48 8b 45 e8          	mov    -0x18(%rbp),%rax
    55b8:	48 8b 55 d8          	mov    -0x28(%rbp),%rdx
    55bc:	48 8b 4d f0          	mov    -0x10(%rbp),%rcx
    55c0:	48 89 ce             	mov    %rcx,%rsi
    55c3:	48 89 c7             	mov    %rax,%rdi
    55c6:	e8 d5 f6 ff ff       	callq  4ca0 <_ZNSt8_Rb_treeINSt7__cxx1112basic_stringIcSt11char_traitsIcESaIcEEESt4pairIKS5_S5_ESt10_Select1stIS8_ESt4lessIS5_ESaIS8_EE17_M_insert_unique_ESt23_Rb_tree_const_iteratorIS8_ERKS8_@plt>
    55cb:	48 8b 4d f8          	mov    -0x8(%rbp),%rcx
    55cf:	64 48 33 0c 25 28 00 	xor    %fs:0x28,%rcx
    55d6:	00 00 
    55d8:	74 05                	je     55df <_ZNSt3mapINSt7__cxx1112basic_stringIcSt11char_traitsIcESaIcEEES5_St4lessIS5_ESaISt4pairIKS5_S5_EEE6insertESt17_Rb_tree_iteratorISA_ERKSA_+0x61>
    55da:	e8 e1 f7 ff ff       	callq  4dc0 <__stack_chk_fail@plt>
    55df:	c9                   	leaveq 
    55e0:	c3                   	retq   
    55e1:	90                   	nop

00000000000055e2 <_ZNSt8_Rb_treeINSt7__cxx1112basic_stringIcSt11char_traitsIcESaIcEEESt4pairIKS5_S5_ESt10_Select1stIS8_ESt4lessIS5_ESaIS8_EE11lower_boundERS7_>:
    55e2:	55                   	push   %rbp
    55e3:	48 89 e5             	mov    %rsp,%rbp
    55e6:	53                   	push   %rbx
    55e7:	48 83 ec 18          	sub    $0x18,%rsp
    55eb:	48 89 7d e8          	mov    %rdi,-0x18(%rbp)
    55ef:	48 89 75 e0          	mov    %rsi,-0x20(%rbp)
    55f3:	48 8b 45 e8          	mov    -0x18(%rbp),%rax
    55f7:	48 89 c7             	mov    %rax,%rdi
    55fa:	e8 81 f5 ff ff       	callq  4b80 <_ZNSt8_Rb_treeINSt7__cxx1112basic_stringIcSt11char_traitsIcESaIcEEESt4pairIKS5_S5_ESt10_Select1stIS8_ESt4lessIS5_ESaIS8_EE6_M_endEv@plt>
    55ff:	48 89 c3             	mov    %rax,%rbx
    5602:	48 8b 45 e8          	mov    -0x18(%rbp),%rax
    5606:	48 89 c7             	mov    %rax,%rdi
    5609:	e8 52 f4 ff ff       	callq  4a60 <_ZNSt8_Rb_treeINSt7__cxx1112basic_stringIcSt11char_traitsIcESaIcEEESt4pairIKS5_S5_ESt10_Select1stIS8_ESt4lessIS5_ESaIS8_EE8_M_beginEv@plt>
    560e:	48 89 c6             	mov    %rax,%rsi
    5611:	48 8b 55 e0          	mov    -0x20(%rbp),%rdx
    5615:	48 8b 45 e8          	mov    -0x18(%rbp),%rax
    5619:	48 89 d1             	mov    %rdx,%rcx
    561c:	48 89 da             	mov    %rbx,%rdx
    561f:	48 89 c7             	mov    %rax,%rdi
    5622:	e8 c9 f3 ff ff       	callq  49f0 <_ZNSt8_Rb_treeINSt7__cxx1112basic_stringIcSt11char_traitsIcESaIcEEESt4pairIKS5_S5_ESt10_Select1stIS8_ESt4lessIS5_ESaIS8_EE14_M_lower_boundEPSt13_Rb_tree_nodeIS8_ESH_RS7_@plt>
    5627:	48 83 c4 18          	add    $0x18,%rsp
    562b:	5b                   	pop    %rbx
    562c:	5d                   	pop    %rbp
    562d:	c3                   	retq   

000000000000562e <_ZNSt8_Rb_treeINSt7__cxx1112basic_stringIcSt11char_traitsIcESaIcEEESt4pairIKS5_S5_ESt10_Select1stIS8_ESt4lessIS5_ESaIS8_EE3endEv>:
    562e:	55                   	push   %rbp
    562f:	48 89 e5             	mov    %rsp,%rbp
    5632:	48 83 ec 20          	sub    $0x20,%rsp
    5636:	48 89 7d e8          	mov    %rdi,-0x18(%rbp)
    563a:	64 48 8b 04 25 28 00 	mov    %fs:0x28,%rax
    5641:	00 00 
    5643:	48 89 45 f8          	mov    %rax,-0x8(%rbp)
    5647:	31 c0                	xor    %eax,%eax
    5649:	48 8b 45 e8          	mov    -0x18(%rbp),%rax
    564d:	48 8d 50 08          	lea    0x8(%rax),%rdx
    5651:	48 8d 45 f0          	lea    -0x10(%rbp),%rax
    5655:	48 89 d6             	mov    %rdx,%rsi
    5658:	48 89 c7             	mov    %rax,%rdi
    565b:	e8 70 f4 ff ff       	callq  4ad0 <_ZNSt17_Rb_tree_iteratorISt4pairIKNSt7__cxx1112basic_stringIcSt11char_traitsIcESaIcEEES6_EEC1EPSt18_Rb_tree_node_base@plt>
    5660:	48 8b 45 f0          	mov    -0x10(%rbp),%rax
    5664:	48 8b 4d f8          	mov    -0x8(%rbp),%rcx
    5668:	64 48 33 0c 25 28 00 	xor    %fs:0x28,%rcx
    566f:	00 00 
    5671:	74 05                	je     5678 <_ZNSt8_Rb_treeINSt7__cxx1112basic_stringIcSt11char_traitsIcESaIcEEESt4pairIKS5_S5_ESt10_Select1stIS8_ESt4lessIS5_ESaIS8_EE3endEv+0x4a>
    5673:	e8 48 f7 ff ff       	callq  4dc0 <__stack_chk_fail@plt>
    5678:	c9                   	leaveq 
    5679:	c3                   	retq   

000000000000567a <_ZNKSt8_Rb_treeINSt7__cxx1112basic_stringIcSt11char_traitsIcESaIcEEESt4pairIKS5_S5_ESt10_Select1stIS8_ESt4lessIS5_ESaIS8_EE8key_compEv>:
    567a:	55                   	push   %rbp
    567b:	48 89 e5             	mov    %rsp,%rbp
    567e:	48 89 7d f8          	mov    %rdi,-0x8(%rbp)
    5682:	5d                   	pop    %rbp
    5683:	c3                   	retq   

0000000000005684 <_ZNSt13_Rb_tree_nodeISt4pairIKNSt7__cxx1112basic_stringIcSt11char_traitsIcESaIcEEES6_EE9_M_valptrEv>:
    5684:	55                   	push   %rbp
    5685:	48 89 e5             	mov    %rsp,%rbp
    5688:	48 83 ec 10          	sub    $0x10,%rsp
    568c:	48 89 7d f8          	mov    %rdi,-0x8(%rbp)
    5690:	48 8b 45 f8          	mov    -0x8(%rbp),%rax
    5694:	48 83 c0 20          	add    $0x20,%rax
    5698:	48 89 c7             	mov    %rax,%rdi
    569b:	e8 70 f7 ff ff       	callq  4e10 <_ZSt11__addressofISt4pairIKNSt7__cxx1112basic_stringIcSt11char_traitsIcESaIcEEES6_EEPT_RS9_@plt>
    56a0:	c9                   	leaveq 
    56a1:	c3                   	retq   

00000000000056a2 <_ZStltIcSt11char_traitsIcESaIcEEbRKNSt7__cxx1112basic_stringIT_T0_T1_EESA_>:
    56a2:	55                   	push   %rbp
    56a3:	48 89 e5             	mov    %rsp,%rbp
    56a6:	48 83 ec 10          	sub    $0x10,%rsp
    56aa:	48 89 7d f8          	mov    %rdi,-0x8(%rbp)
    56ae:	48 89 75 f0          	mov    %rsi,-0x10(%rbp)
    56b2:	48 8b 55 f0          	mov    -0x10(%rbp),%rdx
    56b6:	48 8b 45 f8          	mov    -0x8(%rbp),%rax
    56ba:	48 89 d6             	mov    %rdx,%rsi
    56bd:	48 89 c7             	mov    %rax,%rdi
    56c0:	e8 fb f4 ff ff       	callq  4bc0 <_ZNKSt7__cxx1112basic_stringIcSt11char_traitsIcESaIcEE7compareERKS4_@plt>
    56c5:	c1 e8 1f             	shr    $0x1f,%eax
    56c8:	c9                   	leaveq 
    56c9:	c3                   	retq   

00000000000056ca <_ZNSt23_Rb_tree_const_iteratorISt4pairIKNSt7__cxx1112basic_stringIcSt11char_traitsIcESaIcEEES6_EEC1ERKSt17_Rb_tree_iteratorIS8_E>:
    56ca:	55                   	push   %rbp
    56cb:	48 89 e5             	mov    %rsp,%rbp
    56ce:	48 89 7d f8          	mov    %rdi,-0x8(%rbp)
    56d2:	48 89 75 f0          	mov    %rsi,-0x10(%rbp)
    56d6:	48 8b 45 f0          	mov    -0x10(%rbp),%rax
    56da:	48 8b 10             	mov    (%rax),%rdx
    56dd:	48 8b 45 f8          	mov    -0x8(%rbp),%rax
    56e1:	48 89 10             	mov    %rdx,(%rax)
    56e4:	90                   	nop
    56e5:	5d                   	pop    %rbp
    56e6:	c3                   	retq   
    56e7:	90                   	nop

00000000000056e8 <_ZNSt8_Rb_treeINSt7__cxx1112basic_stringIcSt11char_traitsIcESaIcEEESt4pairIKS5_S5_ESt10_Select1stIS8_ESt4lessIS5_ESaIS8_EE17_M_insert_unique_ESt23_Rb_tree_const_iteratorIS8_ERKS8_>:
    56e8:	55                   	push   %rbp
    56e9:	48 89 e5             	mov    %rsp,%rbp
    56ec:	48 83 ec 30          	sub    $0x30,%rsp
    56f0:	48 89 7d e8          	mov    %rdi,-0x18(%rbp)
    56f4:	48 89 75 e0          	mov    %rsi,-0x20(%rbp)
    56f8:	48 89 55 d8          	mov    %rdx,-0x28(%rbp)
    56fc:	64 48 8b 04 25 28 00 	mov    %fs:0x28,%rax
    5703:	00 00 
    5705:	48 89 45 f8          	mov    %rax,-0x8(%rbp)
    5709:	31 c0                	xor    %eax,%eax
    570b:	48 8b 55 e8          	mov    -0x18(%rbp),%rdx
    570f:	48 8d 45 f0          	lea    -0x10(%rbp),%rax
    5713:	48 89 d6             	mov    %rdx,%rsi
    5716:	48 89 c7             	mov    %rax,%rdi
    5719:	e8 e2 f4 ff ff       	callq  4c00 <_ZNSt8_Rb_treeINSt7__cxx1112basic_stringIcSt11char_traitsIcESaIcEEESt4pairIKS5_S5_ESt10_Select1stIS8_ESt4lessIS5_ESaIS8_EE11_Alloc_nodeC1ERSE_@plt>
    571e:	48 8d 4d f0          	lea    -0x10(%rbp),%rcx
    5722:	48 8b 55 d8          	mov    -0x28(%rbp),%rdx
    5726:	48 8b 75 e0          	mov    -0x20(%rbp),%rsi
    572a:	48 8b 45 e8          	mov    -0x18(%rbp),%rax
    572e:	48 89 c7             	mov    %rax,%rdi
    5731:	e8 da f2 ff ff       	callq  4a10 <_ZNSt8_Rb_treeINSt7__cxx1112basic_stringIcSt11char_traitsIcESaIcEEESt4pairIKS5_S5_ESt10_Select1stIS8_ESt4lessIS5_ESaIS8_EE17_M_insert_unique_INSE_11_Alloc_nodeEEESt17_Rb_tree_iteratorIS8_ESt23_Rb_tree_const_iteratorIS8_ERKS8_RT_@plt>
    5736:	48 8b 4d f8          	mov    -0x8(%rbp),%rcx
    573a:	64 48 33 0c 25 28 00 	xor    %fs:0x28,%rcx
    5741:	00 00 
    5743:	74 05                	je     574a <_ZNSt8_Rb_treeINSt7__cxx1112basic_stringIcSt11char_traitsIcESaIcEEESt4pairIKS5_S5_ESt10_Select1stIS8_ESt4lessIS5_ESaIS8_EE17_M_insert_unique_ESt23_Rb_tree_const_iteratorIS8_ERKS8_+0x62>
    5745:	e8 76 f6 ff ff       	callq  4dc0 <__stack_chk_fail@plt>
    574a:	c9                   	leaveq 
    574b:	c3                   	retq   

000000000000574c <_ZNSt8_Rb_treeINSt7__cxx1112basic_stringIcSt11char_traitsIcESaIcEEESt4pairIKS5_S5_ESt10_Select1stIS8_ESt4lessIS5_ESaIS8_EE8_M_beginEv>:
    574c:	55                   	push   %rbp
    574d:	48 89 e5             	mov    %rsp,%rbp
    5750:	48 89 7d f8          	mov    %rdi,-0x8(%rbp)
    5754:	48 8b 45 f8          	mov    -0x8(%rbp),%rax
    5758:	48 8b 40 10          	mov    0x10(%rax),%rax
    575c:	5d                   	pop    %rbp
    575d:	c3                   	retq   

000000000000575e <_ZNSt8_Rb_treeINSt7__cxx1112basic_stringIcSt11char_traitsIcESaIcEEESt4pairIKS5_S5_ESt10_Select1stIS8_ESt4lessIS5_ESaIS8_EE6_M_endEv>:
    575e:	55                   	push   %rbp
    575f:	48 89 e5             	mov    %rsp,%rbp
    5762:	48 89 7d f8          	mov    %rdi,-0x8(%rbp)
    5766:	48 8b 45 f8          	mov    -0x8(%rbp),%rax
    576a:	48 83 c0 08          	add    $0x8,%rax
    576e:	5d                   	pop    %rbp
    576f:	c3                   	retq   

0000000000005770 <_ZNSt8_Rb_treeINSt7__cxx1112basic_stringIcSt11char_traitsIcESaIcEEESt4pairIKS5_S5_ESt10_Select1stIS8_ESt4lessIS5_ESaIS8_EE14_M_lower_boundEPSt13_Rb_tree_nodeIS8_ESH_RS7_>:
    5770:	55                   	push   %rbp
    5771:	48 89 e5             	mov    %rsp,%rbp
    5774:	48 83 ec 30          	sub    $0x30,%rsp
    5778:	48 89 7d e8          	mov    %rdi,-0x18(%rbp)
    577c:	48 89 75 e0          	mov    %rsi,-0x20(%rbp)
    5780:	48 89 55 d8          	mov    %rdx,-0x28(%rbp)
    5784:	48 89 4d d0          	mov    %rcx,-0x30(%rbp)
    5788:	64 48 8b 04 25 28 00 	mov    %fs:0x28,%rax
    578f:	00 00 
    5791:	48 89 45 f8          	mov    %rax,-0x8(%rbp)
    5795:	31 c0                	xor    %eax,%eax
    5797:	48 83 7d e0 00       	cmpq   $0x0,-0x20(%rbp)
    579c:	74 55                	je     57f3 <_ZNSt8_Rb_treeINSt7__cxx1112basic_stringIcSt11char_traitsIcESaIcEEESt4pairIKS5_S5_ESt10_Select1stIS8_ESt4lessIS5_ESaIS8_EE14_M_lower_boundEPSt13_Rb_tree_nodeIS8_ESH_RS7_+0x83>
    579e:	48 8b 45 e0          	mov    -0x20(%rbp),%rax
    57a2:	48 89 c7             	mov    %rax,%rdi
    57a5:	e8 26 f4 ff ff       	callq  4bd0 <_ZNSt8_Rb_treeINSt7__cxx1112basic_stringIcSt11char_traitsIcESaIcEEESt4pairIKS5_S5_ESt10_Select1stIS8_ESt4lessIS5_ESaIS8_EE6_S_keyEPKSt13_Rb_tree_nodeIS8_E@plt>
    57aa:	48 89 c1             	mov    %rax,%rcx
    57ad:	48 8b 45 e8          	mov    -0x18(%rbp),%rax
    57b1:	48 8b 55 d0          	mov    -0x30(%rbp),%rdx
    57b5:	48 89 ce             	mov    %rcx,%rsi
    57b8:	48 89 c7             	mov    %rax,%rdi
    57bb:	e8 70 f7 ff ff       	callq  4f30 <_ZNKSt4lessINSt7__cxx1112basic_stringIcSt11char_traitsIcESaIcEEEEclERKS5_S8_@plt>
    57c0:	83 f0 01             	xor    $0x1,%eax
    57c3:	84 c0                	test   %al,%al
    57c5:	74 1a                	je     57e1 <_ZNSt8_Rb_treeINSt7__cxx1112basic_stringIcSt11char_traitsIcESaIcEEESt4pairIKS5_S5_ESt10_Select1stIS8_ESt4lessIS5_ESaIS8_EE14_M_lower_boundEPSt13_Rb_tree_nodeIS8_ESH_RS7_+0x71>
    57c7:	48 8b 45 e0          	mov    -0x20(%rbp),%rax
    57cb:	48 89 45 d8          	mov    %rax,-0x28(%rbp)
    57cf:	48 8b 45 e0          	mov    -0x20(%rbp),%rax
    57d3:	48 89 c7             	mov    %rax,%rdi
    57d6:	e8 95 f5 ff ff       	callq  4d70 <_ZNSt8_Rb_treeINSt7__cxx1112basic_stringIcSt11char_traitsIcESaIcEEESt4pairIKS5_S5_ESt10_Select1stIS8_ESt4lessIS5_ESaIS8_EE7_S_leftEPSt18_Rb_tree_node_base@plt>
    57db:	48 89 45 e0          	mov    %rax,-0x20(%rbp)
    57df:	eb b6                	jmp    5797 <_ZNSt8_Rb_treeINSt7__cxx1112basic_stringIcSt11char_traitsIcESaIcEEESt4pairIKS5_S5_ESt10_Select1stIS8_ESt4lessIS5_ESaIS8_EE14_M_lower_boundEPSt13_Rb_tree_nodeIS8_ESH_RS7_+0x27>
    57e1:	48 8b 45 e0          	mov    -0x20(%rbp),%rax
    57e5:	48 89 c7             	mov    %rax,%rdi
    57e8:	e8 33 f3 ff ff       	callq  4b20 <_ZNSt8_Rb_treeINSt7__cxx1112basic_stringIcSt11char_traitsIcESaIcEEESt4pairIKS5_S5_ESt10_Select1stIS8_ESt4lessIS5_ESaIS8_EE8_S_rightEPSt18_Rb_tree_node_base@plt>
    57ed:	48 89 45 e0          	mov    %rax,-0x20(%rbp)
    57f1:	eb a4                	jmp    5797 <_ZNSt8_Rb_treeINSt7__cxx1112basic_stringIcSt11char_traitsIcESaIcEEESt4pairIKS5_S5_ESt10_Select1stIS8_ESt4lessIS5_ESaIS8_EE14_M_lower_boundEPSt13_Rb_tree_nodeIS8_ESH_RS7_+0x27>
    57f3:	48 8b 55 d8          	mov    -0x28(%rbp),%rdx
    57f7:	48 8d 45 f0          	lea    -0x10(%rbp),%rax
    57fb:	48 89 d6             	mov    %rdx,%rsi
    57fe:	48 89 c7             	mov    %rax,%rdi
    5801:	e8 ca f2 ff ff       	callq  4ad0 <_ZNSt17_Rb_tree_iteratorISt4pairIKNSt7__cxx1112basic_stringIcSt11char_traitsIcESaIcEEES6_EEC1EPSt18_Rb_tree_node_base@plt>
    5806:	48 8b 45 f0          	mov    -0x10(%rbp),%rax
    580a:	48 8b 4d f8          	mov    -0x8(%rbp),%rcx
    580e:	64 48 33 0c 25 28 00 	xor    %fs:0x28,%rcx
    5815:	00 00 
    5817:	74 05                	je     581e <_ZNSt8_Rb_treeINSt7__cxx1112basic_stringIcSt11char_traitsIcESaIcEEESt4pairIKS5_S5_ESt10_Select1stIS8_ESt4lessIS5_ESaIS8_EE14_M_lower_boundEPSt13_Rb_tree_nodeIS8_ESH_RS7_+0xae>
    5819:	e8 a2 f5 ff ff       	callq  4dc0 <__stack_chk_fail@plt>
    581e:	c9                   	leaveq 
    581f:	c3                   	retq   

0000000000005820 <_ZNSt17_Rb_tree_iteratorISt4pairIKNSt7__cxx1112basic_stringIcSt11char_traitsIcESaIcEEES6_EEC1EPSt18_Rb_tree_node_base>:
    5820:	55                   	push   %rbp
    5821:	48 89 e5             	mov    %rsp,%rbp
    5824:	48 89 7d f8          	mov    %rdi,-0x8(%rbp)
    5828:	48 89 75 f0          	mov    %rsi,-0x10(%rbp)
    582c:	48 8b 45 f8          	mov    -0x8(%rbp),%rax
    5830:	48 8b 55 f0          	mov    -0x10(%rbp),%rdx
    5834:	48 89 10             	mov    %rdx,(%rax)
    5837:	90                   	nop
    5838:	5d                   	pop    %rbp
    5839:	c3                   	retq   

000000000000583a <_ZSt11__addressofISt4pairIKNSt7__cxx1112basic_stringIcSt11char_traitsIcESaIcEEES6_EEPT_RS9_>:
    583a:	55                   	push   %rbp
    583b:	48 89 e5             	mov    %rsp,%rbp
    583e:	48 89 7d f8          	mov    %rdi,-0x8(%rbp)
    5842:	48 8b 45 f8          	mov    -0x8(%rbp),%rax
    5846:	5d                   	pop    %rbp
    5847:	c3                   	retq   

0000000000005848 <_ZNSt8_Rb_treeINSt7__cxx1112basic_stringIcSt11char_traitsIcESaIcEEESt4pairIKS5_S5_ESt10_Select1stIS8_ESt4lessIS5_ESaIS8_EE11_Alloc_nodeC1ERSE_>:
    5848:	55                   	push   %rbp
    5849:	48 89 e5             	mov    %rsp,%rbp
    584c:	48 89 7d f8          	mov    %rdi,-0x8(%rbp)
    5850:	48 89 75 f0          	mov    %rsi,-0x10(%rbp)
    5854:	48 8b 45 f8          	mov    -0x8(%rbp),%rax
    5858:	48 8b 55 f0          	mov    -0x10(%rbp),%rdx
    585c:	48 89 10             	mov    %rdx,(%rax)
    585f:	90                   	nop
    5860:	5d                   	pop    %rbp
    5861:	c3                   	retq   

0000000000005862 <_ZNSt8_Rb_treeINSt7__cxx1112basic_stringIcSt11char_traitsIcESaIcEEESt4pairIKS5_S5_ESt10_Select1stIS8_ESt4lessIS5_ESaIS8_EE17_M_insert_unique_INSE_11_Alloc_nodeEEESt17_Rb_tree_iteratorIS8_ESt23_Rb_tree_const_iteratorIS8_ERKS8_RT_>:
    5862:	55                   	push   %rbp
    5863:	48 89 e5             	mov    %rsp,%rbp
    5866:	48 83 ec 50          	sub    $0x50,%rsp
    586a:	48 89 7d c8          	mov    %rdi,-0x38(%rbp)
    586e:	48 89 75 c0          	mov    %rsi,-0x40(%rbp)
    5872:	48 89 55 b8          	mov    %rdx,-0x48(%rbp)
    5876:	48 89 4d b0          	mov    %rcx,-0x50(%rbp)
    587a:	64 48 8b 04 25 28 00 	mov    %fs:0x28,%rax
    5881:	00 00 
    5883:	48 89 45 f8          	mov    %rax,-0x8(%rbp)
    5887:	31 c0                	xor    %eax,%eax
    5889:	48 8b 55 b8          	mov    -0x48(%rbp),%rdx
    588d:	48 8d 45 d0          	lea    -0x30(%rbp),%rax
    5891:	48 89 d6             	mov    %rdx,%rsi
    5894:	48 89 c7             	mov    %rax,%rdi
    5897:	e8 a4 f4 ff ff       	callq  4d40 <_ZNKSt10_Select1stISt4pairIKNSt7__cxx1112basic_stringIcSt11char_traitsIcESaIcEEES6_EEclERKS8_@plt>
    589c:	48 89 c2             	mov    %rax,%rdx
    589f:	48 8b 4d c0          	mov    -0x40(%rbp),%rcx
    58a3:	48 8b 45 c8          	mov    -0x38(%rbp),%rax
    58a7:	48 89 ce             	mov    %rcx,%rsi
    58aa:	48 89 c7             	mov    %rax,%rdi
    58ad:	e8 ae f6 ff ff       	callq  4f60 <_ZNSt8_Rb_treeINSt7__cxx1112basic_stringIcSt11char_traitsIcESaIcEEESt4pairIKS5_S5_ESt10_Select1stIS8_ESt4lessIS5_ESaIS8_EE29_M_get_insert_hint_unique_posESt23_Rb_tree_const_iteratorIS8_ERS7_@plt>
    58b2:	48 89 45 e0          	mov    %rax,-0x20(%rbp)
    58b6:	48 89 55 e8          	mov    %rdx,-0x18(%rbp)
    58ba:	48 8b 45 e8          	mov    -0x18(%rbp),%rax
    58be:	48 85 c0             	test   %rax,%rax
    58c1:	74 21                	je     58e4 <_ZNSt8_Rb_treeINSt7__cxx1112basic_stringIcSt11char_traitsIcESaIcEEESt4pairIKS5_S5_ESt10_Select1stIS8_ESt4lessIS5_ESaIS8_EE17_M_insert_unique_INSE_11_Alloc_nodeEEESt17_Rb_tree_iteratorIS8_ESt23_Rb_tree_const_iteratorIS8_ERKS8_RT_+0x82>
    58c3:	48 8b 55 e8          	mov    -0x18(%rbp),%rdx
    58c7:	48 8b 75 e0          	mov    -0x20(%rbp),%rsi
    58cb:	48 8b 7d b0          	mov    -0x50(%rbp),%rdi
    58cf:	48 8b 4d b8          	mov    -0x48(%rbp),%rcx
    58d3:	48 8b 45 c8          	mov    -0x38(%rbp),%rax
    58d7:	49 89 f8             	mov    %rdi,%r8
    58da:	48 89 c7             	mov    %rax,%rdi
    58dd:	e8 2e f2 ff ff       	callq  4b10 <_ZNSt8_Rb_treeINSt7__cxx1112basic_stringIcSt11char_traitsIcESaIcEEESt4pairIKS5_S5_ESt10_Select1stIS8_ESt4lessIS5_ESaIS8_EE10_M_insert_INSE_11_Alloc_nodeEEESt17_Rb_tree_iteratorIS8_EPSt18_Rb_tree_node_baseSK_RKS8_RT_@plt>
    58e2:	eb 17                	jmp    58fb <_ZNSt8_Rb_treeINSt7__cxx1112basic_stringIcSt11char_traitsIcESaIcEEESt4pairIKS5_S5_ESt10_Select1stIS8_ESt4lessIS5_ESaIS8_EE17_M_insert_unique_INSE_11_Alloc_nodeEEESt17_Rb_tree_iteratorIS8_ESt23_Rb_tree_const_iteratorIS8_ERKS8_RT_+0x99>
    58e4:	48 8b 55 e0          	mov    -0x20(%rbp),%rdx
    58e8:	48 8d 45 d0          	lea    -0x30(%rbp),%rax
    58ec:	48 89 d6             	mov    %rdx,%rsi
    58ef:	48 89 c7             	mov    %rax,%rdi
    58f2:	e8 d9 f1 ff ff       	callq  4ad0 <_ZNSt17_Rb_tree_iteratorISt4pairIKNSt7__cxx1112basic_stringIcSt11char_traitsIcESaIcEEES6_EEC1EPSt18_Rb_tree_node_base@plt>
    58f7:	48 8b 45 d0          	mov    -0x30(%rbp),%rax
    58fb:	48 8b 4d f8          	mov    -0x8(%rbp),%rcx
    58ff:	64 48 33 0c 25 28 00 	xor    %fs:0x28,%rcx
    5906:	00 00 
    5908:	74 05                	je     590f <_ZNSt8_Rb_treeINSt7__cxx1112basic_stringIcSt11char_traitsIcESaIcEEESt4pairIKS5_S5_ESt10_Select1stIS8_ESt4lessIS5_ESaIS8_EE17_M_insert_unique_INSE_11_Alloc_nodeEEESt17_Rb_tree_iteratorIS8_ESt23_Rb_tree_const_iteratorIS8_ERKS8_RT_+0xad>
    590a:	e8 b1 f4 ff ff       	callq  4dc0 <__stack_chk_fail@plt>
    590f:	c9                   	leaveq 
    5910:	c3                   	retq   

0000000000005911 <_ZNSt8_Rb_treeINSt7__cxx1112basic_stringIcSt11char_traitsIcESaIcEEESt4pairIKS5_S5_ESt10_Select1stIS8_ESt4lessIS5_ESaIS8_EE6_S_keyEPKSt13_Rb_tree_nodeIS8_E>:
    5911:	55                   	push   %rbp
    5912:	48 89 e5             	mov    %rsp,%rbp
    5915:	48 83 ec 20          	sub    $0x20,%rsp
    5919:	48 89 7d e8          	mov    %rdi,-0x18(%rbp)
    591d:	64 48 8b 04 25 28 00 	mov    %fs:0x28,%rax
    5924:	00 00 
    5926:	48 89 45 f8          	mov    %rax,-0x8(%rbp)
    592a:	31 c0                	xor    %eax,%eax
    592c:	48 8b 45 e8          	mov    -0x18(%rbp),%rax
    5930:	48 89 c7             	mov    %rax,%rdi
    5933:	e8 98 f4 ff ff       	callq  4dd0 <_ZNSt8_Rb_treeINSt7__cxx1112basic_stringIcSt11char_traitsIcESaIcEEESt4pairIKS5_S5_ESt10_Select1stIS8_ESt4lessIS5_ESaIS8_EE8_S_valueEPKSt13_Rb_tree_nodeIS8_E@plt>
    5938:	48 89 c2             	mov    %rax,%rdx
    593b:	48 8d 45 f7          	lea    -0x9(%rbp),%rax
    593f:	48 89 d6             	mov    %rdx,%rsi
    5942:	48 89 c7             	mov    %rax,%rdi
    5945:	e8 f6 f3 ff ff       	callq  4d40 <_ZNKSt10_Select1stISt4pairIKNSt7__cxx1112basic_stringIcSt11char_traitsIcESaIcEEES6_EEclERKS8_@plt>
    594a:	48 8b 4d f8          	mov    -0x8(%rbp),%rcx
    594e:	64 48 33 0c 25 28 00 	xor    %fs:0x28,%rcx
    5955:	00 00 
    5957:	74 05                	je     595e <_ZNSt8_Rb_treeINSt7__cxx1112basic_stringIcSt11char_traitsIcESaIcEEESt4pairIKS5_S5_ESt10_Select1stIS8_ESt4lessIS5_ESaIS8_EE6_S_keyEPKSt13_Rb_tree_nodeIS8_E+0x4d>
    5959:	e8 62 f4 ff ff       	callq  4dc0 <__stack_chk_fail@plt>
    595e:	c9                   	leaveq 
    595f:	c3                   	retq   

0000000000005960 <_ZNSt8_Rb_treeINSt7__cxx1112basic_stringIcSt11char_traitsIcESaIcEEESt4pairIKS5_S5_ESt10_Select1stIS8_ESt4lessIS5_ESaIS8_EE7_S_leftEPSt18_Rb_tree_node_base>:
    5960:	55                   	push   %rbp
    5961:	48 89 e5             	mov    %rsp,%rbp
    5964:	48 89 7d f8          	mov    %rdi,-0x8(%rbp)
    5968:	48 8b 45 f8          	mov    -0x8(%rbp),%rax
    596c:	48 8b 40 10          	mov    0x10(%rax),%rax
    5970:	5d                   	pop    %rbp
    5971:	c3                   	retq   

0000000000005972 <_ZNSt8_Rb_treeINSt7__cxx1112basic_stringIcSt11char_traitsIcESaIcEEESt4pairIKS5_S5_ESt10_Select1stIS8_ESt4lessIS5_ESaIS8_EE8_S_rightEPSt18_Rb_tree_node_base>:
    5972:	55                   	push   %rbp
    5973:	48 89 e5             	mov    %rsp,%rbp
    5976:	48 89 7d f8          	mov    %rdi,-0x8(%rbp)
    597a:	48 8b 45 f8          	mov    -0x8(%rbp),%rax
    597e:	48 8b 40 18          	mov    0x18(%rax),%rax
    5982:	5d                   	pop    %rbp
    5983:	c3                   	retq   

0000000000005984 <_ZNSt8_Rb_treeINSt7__cxx1112basic_stringIcSt11char_traitsIcESaIcEEESt4pairIKS5_S5_ESt10_Select1stIS8_ESt4lessIS5_ESaIS8_EE29_M_get_insert_hint_unique_posESt23_Rb_tree_const_iteratorIS8_ERS7_>:
    5984:	55                   	push   %rbp
    5985:	48 89 e5             	mov    %rsp,%rbp
    5988:	53                   	push   %rbx
    5989:	48 83 ec 68          	sub    $0x68,%rsp
    598d:	48 89 7d a8          	mov    %rdi,-0x58(%rbp)
    5991:	48 89 75 a0          	mov    %rsi,-0x60(%rbp)
    5995:	48 89 55 98          	mov    %rdx,-0x68(%rbp)
    5999:	64 48 8b 04 25 28 00 	mov    %fs:0x28,%rax
    59a0:	00 00 
    59a2:	48 89 45 e8          	mov    %rax,-0x18(%rbp)
    59a6:	31 c0                	xor    %eax,%eax
    59a8:	48 8d 45 a0          	lea    -0x60(%rbp),%rax
    59ac:	48 89 c7             	mov    %rax,%rdi
    59af:	e8 6c f2 ff ff       	callq  4c20 <_ZNKSt23_Rb_tree_const_iteratorISt4pairIKNSt7__cxx1112basic_stringIcSt11char_traitsIcESaIcEEES6_EE13_M_const_castEv@plt>
    59b4:	48 89 45 b0          	mov    %rax,-0x50(%rbp)
    59b8:	48 8b 5d b0          	mov    -0x50(%rbp),%rbx
    59bc:	48 8b 45 a8          	mov    -0x58(%rbp),%rax
    59c0:	48 89 c7             	mov    %rax,%rdi
    59c3:	e8 b8 f1 ff ff       	callq  4b80 <_ZNSt8_Rb_treeINSt7__cxx1112basic_stringIcSt11char_traitsIcESaIcEEESt4pairIKS5_S5_ESt10_Select1stIS8_ESt4lessIS5_ESaIS8_EE6_M_endEv@plt>
    59c8:	48 39 c3             	cmp    %rax,%rbx
    59cb:	0f 94 c0             	sete   %al
    59ce:	84 c0                	test   %al,%al
    59d0:	0f 84 a1 00 00 00    	je     5a77 <_ZNSt8_Rb_treeINSt7__cxx1112basic_stringIcSt11char_traitsIcESaIcEEESt4pairIKS5_S5_ESt10_Select1stIS8_ESt4lessIS5_ESaIS8_EE29_M_get_insert_hint_unique_posESt23_Rb_tree_const_iteratorIS8_ERS7_+0xf3>
    59d6:	48 8b 45 a8          	mov    -0x58(%rbp),%rax
    59da:	48 89 c7             	mov    %rax,%rdi
    59dd:	e8 3e f0 ff ff       	callq  4a20 <_ZNKSt8_Rb_treeINSt7__cxx1112basic_stringIcSt11char_traitsIcESaIcEEESt4pairIKS5_S5_ESt10_Select1stIS8_ESt4lessIS5_ESaIS8_EE4sizeEv@plt>
    59e2:	48 85 c0             	test   %rax,%rax
    59e5:	74 38                	je     5a1f <_ZNSt8_Rb_treeINSt7__cxx1112basic_stringIcSt11char_traitsIcESaIcEEESt4pairIKS5_S5_ESt10_Select1stIS8_ESt4lessIS5_ESaIS8_EE29_M_get_insert_hint_unique_posESt23_Rb_tree_const_iteratorIS8_ERS7_+0x9b>
    59e7:	48 8b 45 a8          	mov    -0x58(%rbp),%rax
    59eb:	48 89 c7             	mov    %rax,%rdi
    59ee:	e8 8d f4 ff ff       	callq  4e80 <_ZNSt8_Rb_treeINSt7__cxx1112basic_stringIcSt11char_traitsIcESaIcEEESt4pairIKS5_S5_ESt10_Select1stIS8_ESt4lessIS5_ESaIS8_EE12_M_rightmostEv@plt>
    59f3:	48 8b 00             	mov    (%rax),%rax
    59f6:	48 89 c7             	mov    %rax,%rdi
    59f9:	e8 a2 f5 ff ff       	callq  4fa0 <_ZNSt8_Rb_treeINSt7__cxx1112basic_stringIcSt11char_traitsIcESaIcEEESt4pairIKS5_S5_ESt10_Select1stIS8_ESt4lessIS5_ESaIS8_EE6_S_keyEPKSt18_Rb_tree_node_base@plt>
    59fe:	48 89 c1             	mov    %rax,%rcx
    5a01:	48 8b 45 a8          	mov    -0x58(%rbp),%rax
    5a05:	48 8b 55 98          	mov    -0x68(%rbp),%rdx
    5a09:	48 89 ce             	mov    %rcx,%rsi
    5a0c:	48 89 c7             	mov    %rax,%rdi
    5a0f:	e8 1c f5 ff ff       	callq  4f30 <_ZNKSt4lessINSt7__cxx1112basic_stringIcSt11char_traitsIcESaIcEEEEclERKS5_S8_@plt>
    5a14:	84 c0                	test   %al,%al
    5a16:	74 07                	je     5a1f <_ZNSt8_Rb_treeINSt7__cxx1112basic_stringIcSt11char_traitsIcESaIcEEESt4pairIKS5_S5_ESt10_Select1stIS8_ESt4lessIS5_ESaIS8_EE29_M_get_insert_hint_unique_posESt23_Rb_tree_const_iteratorIS8_ERS7_+0x9b>
    5a18:	b8 01 00 00 00       	mov    $0x1,%eax
    5a1d:	eb 05                	jmp    5a24 <_ZNSt8_Rb_treeINSt7__cxx1112basic_stringIcSt11char_traitsIcESaIcEEESt4pairIKS5_S5_ESt10_Select1stIS8_ESt4lessIS5_ESaIS8_EE29_M_get_insert_hint_unique_posESt23_Rb_tree_const_iteratorIS8_ERS7_+0xa0>
    5a1f:	b8 00 00 00 00       	mov    $0x0,%eax
    5a24:	84 c0                	test   %al,%al
    5a26:	74 37                	je     5a5f <_ZNSt8_Rb_treeINSt7__cxx1112basic_stringIcSt11char_traitsIcESaIcEEESt4pairIKS5_S5_ESt10_Select1stIS8_ESt4lessIS5_ESaIS8_EE29_M_get_insert_hint_unique_posESt23_Rb_tree_const_iteratorIS8_ERS7_+0xdb>
    5a28:	48 8b 45 a8          	mov    -0x58(%rbp),%rax
    5a2c:	48 89 c7             	mov    %rax,%rdi
    5a2f:	e8 4c f4 ff ff       	callq  4e80 <_ZNSt8_Rb_treeINSt7__cxx1112basic_stringIcSt11char_traitsIcESaIcEEESt4pairIKS5_S5_ESt10_Select1stIS8_ESt4lessIS5_ESaIS8_EE12_M_rightmostEv@plt>
    5a34:	48 89 c2             	mov    %rax,%rdx
    5a37:	48 c7 45 c8 00 00 00 	movq   $0x0,-0x38(%rbp)
    5a3e:	00 
    5a3f:	48 8d 4d c8          	lea    -0x38(%rbp),%rcx
    5a43:	48 8d 45 d0          	lea    -0x30(%rbp),%rax
    5a47:	48 89 ce             	mov    %rcx,%rsi
    5a4a:	48 89 c7             	mov    %rax,%rdi
    5a4d:	e8 ce f3 ff ff       	callq  4e20 <_ZNSt4pairIPSt18_Rb_tree_node_baseS1_EC1ERKS1_S4_@plt>
    5a52:	48 8b 45 d0          	mov    -0x30(%rbp),%rax
    5a56:	48 8b 55 d8          	mov    -0x28(%rbp),%rdx
    5a5a:	e9 a6 02 00 00       	jmpq   5d05 <_ZNSt8_Rb_treeINSt7__cxx1112basic_stringIcSt11char_traitsIcESaIcEEESt4pairIKS5_S5_ESt10_Select1stIS8_ESt4lessIS5_ESaIS8_EE29_M_get_insert_hint_unique_posESt23_Rb_tree_const_iteratorIS8_ERS7_+0x381>
    5a5f:	48 8b 55 98          	mov    -0x68(%rbp),%rdx
    5a63:	48 8b 45 a8          	mov    -0x58(%rbp),%rax
    5a67:	48 89 d6             	mov    %rdx,%rsi
    5a6a:	48 89 c7             	mov    %rax,%rdi
    5a6d:	e8 ce f3 ff ff       	callq  4e40 <_ZNSt8_Rb_treeINSt7__cxx1112basic_stringIcSt11char_traitsIcESaIcEEESt4pairIKS5_S5_ESt10_Select1stIS8_ESt4lessIS5_ESaIS8_EE24_M_get_insert_unique_posERS7_@plt>
    5a72:	e9 8e 02 00 00       	jmpq   5d05 <_ZNSt8_Rb_treeINSt7__cxx1112basic_stringIcSt11char_traitsIcESaIcEEESt4pairIKS5_S5_ESt10_Select1stIS8_ESt4lessIS5_ESaIS8_EE29_M_get_insert_hint_unique_posESt23_Rb_tree_const_iteratorIS8_ERS7_+0x381>
    5a77:	48 8b 45 b0          	mov    -0x50(%rbp),%rax
    5a7b:	48 89 c7             	mov    %rax,%rdi
    5a7e:	e8 1d f5 ff ff       	callq  4fa0 <_ZNSt8_Rb_treeINSt7__cxx1112basic_stringIcSt11char_traitsIcESaIcEEESt4pairIKS5_S5_ESt10_Select1stIS8_ESt4lessIS5_ESaIS8_EE6_S_keyEPKSt18_Rb_tree_node_base@plt>
    5a83:	48 89 c2             	mov    %rax,%rdx
    5a86:	48 8b 45 a8          	mov    -0x58(%rbp),%rax
    5a8a:	48 8b 4d 98          	mov    -0x68(%rbp),%rcx
    5a8e:	48 89 ce             	mov    %rcx,%rsi
    5a91:	48 89 c7             	mov    %rax,%rdi
    5a94:	e8 97 f4 ff ff       	callq  4f30 <_ZNKSt4lessINSt7__cxx1112basic_stringIcSt11char_traitsIcESaIcEEEEclERKS5_S8_@plt>
    5a99:	84 c0                	test   %al,%al
    5a9b:	0f 84 11 01 00 00    	je     5bb2 <_ZNSt8_Rb_treeINSt7__cxx1112basic_stringIcSt11char_traitsIcESaIcEEESt4pairIKS5_S5_ESt10_Select1stIS8_ESt4lessIS5_ESaIS8_EE29_M_get_insert_hint_unique_posESt23_Rb_tree_const_iteratorIS8_ERS7_+0x22e>
    5aa1:	48 8b 45 b0          	mov    -0x50(%rbp),%rax
    5aa5:	48 89 45 c0          	mov    %rax,-0x40(%rbp)
    5aa9:	48 8b 5d b0          	mov    -0x50(%rbp),%rbx
    5aad:	48 8b 45 a8          	mov    -0x58(%rbp),%rax
    5ab1:	48 89 c7             	mov    %rax,%rdi
    5ab4:	e8 47 f3 ff ff       	callq  4e00 <_ZNSt8_Rb_treeINSt7__cxx1112basic_stringIcSt11char_traitsIcESaIcEEESt4pairIKS5_S5_ESt10_Select1stIS8_ESt4lessIS5_ESaIS8_EE11_M_leftmostEv@plt>
    5ab9:	48 8b 00             	mov    (%rax),%rax
    5abc:	48 39 c3             	cmp    %rax,%rbx
    5abf:	0f 94 c0             	sete   %al
    5ac2:	84 c0                	test   %al,%al
    5ac4:	74 3d                	je     5b03 <_ZNSt8_Rb_treeINSt7__cxx1112basic_stringIcSt11char_traitsIcESaIcEEESt4pairIKS5_S5_ESt10_Select1stIS8_ESt4lessIS5_ESaIS8_EE29_M_get_insert_hint_unique_posESt23_Rb_tree_const_iteratorIS8_ERS7_+0x17f>
    5ac6:	48 8b 45 a8          	mov    -0x58(%rbp),%rax
    5aca:	48 89 c7             	mov    %rax,%rdi
    5acd:	e8 2e f3 ff ff       	callq  4e00 <_ZNSt8_Rb_treeINSt7__cxx1112basic_stringIcSt11char_traitsIcESaIcEEESt4pairIKS5_S5_ESt10_Select1stIS8_ESt4lessIS5_ESaIS8_EE11_M_leftmostEv@plt>
    5ad2:	48 89 c3             	mov    %rax,%rbx
    5ad5:	48 8b 45 a8          	mov    -0x58(%rbp),%rax
    5ad9:	48 89 c7             	mov    %rax,%rdi
    5adc:	e8 1f f3 ff ff       	callq  4e00 <_ZNSt8_Rb_treeINSt7__cxx1112basic_stringIcSt11char_traitsIcESaIcEEESt4pairIKS5_S5_ESt10_Select1stIS8_ESt4lessIS5_ESaIS8_EE11_M_leftmostEv@plt>
    5ae1:	48 89 c1             	mov    %rax,%rcx
    5ae4:	48 8d 45 d0          	lea    -0x30(%rbp),%rax
    5ae8:	48 89 da             	mov    %rbx,%rdx
    5aeb:	48 89 ce             	mov    %rcx,%rsi
    5aee:	48 89 c7             	mov    %rax,%rdi
    5af1:	e8 2a f3 ff ff       	callq  4e20 <_ZNSt4pairIPSt18_Rb_tree_node_baseS1_EC1ERKS1_S4_@plt>
    5af6:	48 8b 45 d0          	mov    -0x30(%rbp),%rax
    5afa:	48 8b 55 d8          	mov    -0x28(%rbp),%rdx
    5afe:	e9 02 02 00 00       	jmpq   5d05 <_ZNSt8_Rb_treeINSt7__cxx1112basic_stringIcSt11char_traitsIcESaIcEEESt4pairIKS5_S5_ESt10_Select1stIS8_ESt4lessIS5_ESaIS8_EE29_M_get_insert_hint_unique_posESt23_Rb_tree_const_iteratorIS8_ERS7_+0x381>
    5b03:	48 8d 45 c0          	lea    -0x40(%rbp),%rax
    5b07:	48 89 c7             	mov    %rax,%rdi
    5b0a:	e8 f1 f3 ff ff       	callq  4f00 <_ZNSt17_Rb_tree_iteratorISt4pairIKNSt7__cxx1112basic_stringIcSt11char_traitsIcESaIcEEES6_EEmmEv@plt>
    5b0f:	48 8b 00             	mov    (%rax),%rax
    5b12:	48 89 c7             	mov    %rax,%rdi
    5b15:	e8 86 f4 ff ff       	callq  4fa0 <_ZNSt8_Rb_treeINSt7__cxx1112basic_stringIcSt11char_traitsIcESaIcEEESt4pairIKS5_S5_ESt10_Select1stIS8_ESt4lessIS5_ESaIS8_EE6_S_keyEPKSt18_Rb_tree_node_base@plt>
    5b1a:	48 89 c1             	mov    %rax,%rcx
    5b1d:	48 8b 45 a8          	mov    -0x58(%rbp),%rax
    5b21:	48 8b 55 98          	mov    -0x68(%rbp),%rdx
    5b25:	48 89 ce             	mov    %rcx,%rsi
    5b28:	48 89 c7             	mov    %rax,%rdi
    5b2b:	e8 00 f4 ff ff       	callq  4f30 <_ZNKSt4lessINSt7__cxx1112basic_stringIcSt11char_traitsIcESaIcEEEEclERKS5_S8_@plt>
    5b30:	84 c0                	test   %al,%al
    5b32:	74 66                	je     5b9a <_ZNSt8_Rb_treeINSt7__cxx1112basic_stringIcSt11char_traitsIcESaIcEEESt4pairIKS5_S5_ESt10_Select1stIS8_ESt4lessIS5_ESaIS8_EE29_M_get_insert_hint_unique_posESt23_Rb_tree_const_iteratorIS8_ERS7_+0x216>
    5b34:	48 8b 45 c0          	mov    -0x40(%rbp),%rax
    5b38:	48 89 c7             	mov    %rax,%rdi
    5b3b:	e8 e0 ef ff ff       	callq  4b20 <_ZNSt8_Rb_treeINSt7__cxx1112basic_stringIcSt11char_traitsIcESaIcEEESt4pairIKS5_S5_ESt10_Select1stIS8_ESt4lessIS5_ESaIS8_EE8_S_rightEPSt18_Rb_tree_node_base@plt>
    5b40:	48 85 c0             	test   %rax,%rax
    5b43:	0f 94 c0             	sete   %al
    5b46:	84 c0                	test   %al,%al
    5b48:	74 2c                	je     5b76 <_ZNSt8_Rb_treeINSt7__cxx1112basic_stringIcSt11char_traitsIcESaIcEEESt4pairIKS5_S5_ESt10_Select1stIS8_ESt4lessIS5_ESaIS8_EE29_M_get_insert_hint_unique_posESt23_Rb_tree_const_iteratorIS8_ERS7_+0x1f2>
    5b4a:	48 c7 45 c8 00 00 00 	movq   $0x0,-0x38(%rbp)
    5b51:	00 
    5b52:	48 8d 55 c0          	lea    -0x40(%rbp),%rdx
    5b56:	48 8d 4d c8          	lea    -0x38(%rbp),%rcx
    5b5a:	48 8d 45 d0          	lea    -0x30(%rbp),%rax
    5b5e:	48 89 ce             	mov    %rcx,%rsi
    5b61:	48 89 c7             	mov    %rax,%rdi
    5b64:	e8 b7 f2 ff ff       	callq  4e20 <_ZNSt4pairIPSt18_Rb_tree_node_baseS1_EC1ERKS1_S4_@plt>
    5b69:	48 8b 45 d0          	mov    -0x30(%rbp),%rax
    5b6d:	48 8b 55 d8          	mov    -0x28(%rbp),%rdx
    5b71:	e9 8f 01 00 00       	jmpq   5d05 <_ZNSt8_Rb_treeINSt7__cxx1112basic_stringIcSt11char_traitsIcESaIcEEESt4pairIKS5_S5_ESt10_Select1stIS8_ESt4lessIS5_ESaIS8_EE29_M_get_insert_hint_unique_posESt23_Rb_tree_const_iteratorIS8_ERS7_+0x381>
    5b76:	48 8d 55 b0          	lea    -0x50(%rbp),%rdx
    5b7a:	48 8d 4d b0          	lea    -0x50(%rbp),%rcx
    5b7e:	48 8d 45 d0          	lea    -0x30(%rbp),%rax
    5b82:	48 89 ce             	mov    %rcx,%rsi
    5b85:	48 89 c7             	mov    %rax,%rdi
    5b88:	e8 93 f2 ff ff       	callq  4e20 <_ZNSt4pairIPSt18_Rb_tree_node_baseS1_EC1ERKS1_S4_@plt>
    5b8d:	48 8b 45 d0          	mov    -0x30(%rbp),%rax
    5b91:	48 8b 55 d8          	mov    -0x28(%rbp),%rdx
    5b95:	e9 6b 01 00 00       	jmpq   5d05 <_ZNSt8_Rb_treeINSt7__cxx1112basic_stringIcSt11char_traitsIcESaIcEEESt4pairIKS5_S5_ESt10_Select1stIS8_ESt4lessIS5_ESaIS8_EE29_M_get_insert_hint_unique_posESt23_Rb_tree_const_iteratorIS8_ERS7_+0x381>
    5b9a:	48 8b 55 98          	mov    -0x68(%rbp),%rdx
    5b9e:	48 8b 45 a8          	mov    -0x58(%rbp),%rax
    5ba2:	48 89 d6             	mov    %rdx,%rsi
    5ba5:	48 89 c7             	mov    %rax,%rdi
    5ba8:	e8 93 f2 ff ff       	callq  4e40 <_ZNSt8_Rb_treeINSt7__cxx1112basic_stringIcSt11char_traitsIcESaIcEEESt4pairIKS5_S5_ESt10_Select1stIS8_ESt4lessIS5_ESaIS8_EE24_M_get_insert_unique_posERS7_@plt>
    5bad:	e9 53 01 00 00       	jmpq   5d05 <_ZNSt8_Rb_treeINSt7__cxx1112basic_stringIcSt11char_traitsIcESaIcEEESt4pairIKS5_S5_ESt10_Select1stIS8_ESt4lessIS5_ESaIS8_EE29_M_get_insert_hint_unique_posESt23_Rb_tree_const_iteratorIS8_ERS7_+0x381>
    5bb2:	48 8b 45 b0          	mov    -0x50(%rbp),%rax
    5bb6:	48 89 c7             	mov    %rax,%rdi
    5bb9:	e8 e2 f3 ff ff       	callq  4fa0 <_ZNSt8_Rb_treeINSt7__cxx1112basic_stringIcSt11char_traitsIcESaIcEEESt4pairIKS5_S5_ESt10_Select1stIS8_ESt4lessIS5_ESaIS8_EE6_S_keyEPKSt18_Rb_tree_node_base@plt>
    5bbe:	48 89 c1             	mov    %rax,%rcx
    5bc1:	48 8b 45 a8          	mov    -0x58(%rbp),%rax
    5bc5:	48 8b 55 98          	mov    -0x68(%rbp),%rdx
    5bc9:	48 89 ce             	mov    %rcx,%rsi
    5bcc:	48 89 c7             	mov    %rax,%rdi
    5bcf:	e8 5c f3 ff ff       	callq  4f30 <_ZNKSt4lessINSt7__cxx1112basic_stringIcSt11char_traitsIcESaIcEEEEclERKS5_S8_@plt>
    5bd4:	84 c0                	test   %al,%al
    5bd6:	0f 84 02 01 00 00    	je     5cde <_ZNSt8_Rb_treeINSt7__cxx1112basic_stringIcSt11char_traitsIcESaIcEEESt4pairIKS5_S5_ESt10_Select1stIS8_ESt4lessIS5_ESaIS8_EE29_M_get_insert_hint_unique_posESt23_Rb_tree_const_iteratorIS8_ERS7_+0x35a>
    5bdc:	48 8b 45 b0          	mov    -0x50(%rbp),%rax
    5be0:	48 89 45 c0          	mov    %rax,-0x40(%rbp)
    5be4:	48 8b 5d b0          	mov    -0x50(%rbp),%rbx
    5be8:	48 8b 45 a8          	mov    -0x58(%rbp),%rax
    5bec:	48 89 c7             	mov    %rax,%rdi
    5bef:	e8 8c f2 ff ff       	callq  4e80 <_ZNSt8_Rb_treeINSt7__cxx1112basic_stringIcSt11char_traitsIcESaIcEEESt4pairIKS5_S5_ESt10_Select1stIS8_ESt4lessIS5_ESaIS8_EE12_M_rightmostEv@plt>
    5bf4:	48 8b 00             	mov    (%rax),%rax
    5bf7:	48 39 c3             	cmp    %rax,%rbx
    5bfa:	0f 94 c0             	sete   %al
    5bfd:	84 c0                	test   %al,%al
    5bff:	74 37                	je     5c38 <_ZNSt8_Rb_treeINSt7__cxx1112basic_stringIcSt11char_traitsIcESaIcEEESt4pairIKS5_S5_ESt10_Select1stIS8_ESt4lessIS5_ESaIS8_EE29_M_get_insert_hint_unique_posESt23_Rb_tree_const_iteratorIS8_ERS7_+0x2b4>
    5c01:	48 8b 45 a8          	mov    -0x58(%rbp),%rax
    5c05:	48 89 c7             	mov    %rax,%rdi
    5c08:	e8 73 f2 ff ff       	callq  4e80 <_ZNSt8_Rb_treeINSt7__cxx1112basic_stringIcSt11char_traitsIcESaIcEEESt4pairIKS5_S5_ESt10_Select1stIS8_ESt4lessIS5_ESaIS8_EE12_M_rightmostEv@plt>
    5c0d:	48 89 c2             	mov    %rax,%rdx
    5c10:	48 c7 45 c8 00 00 00 	movq   $0x0,-0x38(%rbp)
    5c17:	00 
    5c18:	48 8d 4d c8          	lea    -0x38(%rbp),%rcx
    5c1c:	48 8d 45 d0          	lea    -0x30(%rbp),%rax
    5c20:	48 89 ce             	mov    %rcx,%rsi
    5c23:	48 89 c7             	mov    %rax,%rdi
    5c26:	e8 f5 f1 ff ff       	callq  4e20 <_ZNSt4pairIPSt18_Rb_tree_node_baseS1_EC1ERKS1_S4_@plt>
    5c2b:	48 8b 45 d0          	mov    -0x30(%rbp),%rax
    5c2f:	48 8b 55 d8          	mov    -0x28(%rbp),%rdx
    5c33:	e9 cd 00 00 00       	jmpq   5d05 <_ZNSt8_Rb_treeINSt7__cxx1112basic_stringIcSt11char_traitsIcESaIcEEESt4pairIKS5_S5_ESt10_Select1stIS8_ESt4lessIS5_ESaIS8_EE29_M_get_insert_hint_unique_posESt23_Rb_tree_const_iteratorIS8_ERS7_+0x381>
    5c38:	48 8d 45 c0          	lea    -0x40(%rbp),%rax
    5c3c:	48 89 c7             	mov    %rax,%rdi
    5c3f:	e8 4c ef ff ff       	callq  4b90 <_ZNSt17_Rb_tree_iteratorISt4pairIKNSt7__cxx1112basic_stringIcSt11char_traitsIcESaIcEEES6_EEppEv@plt>
    5c44:	48 8b 00             	mov    (%rax),%rax
    5c47:	48 89 c7             	mov    %rax,%rdi
    5c4a:	e8 51 f3 ff ff       	callq  4fa0 <_ZNSt8_Rb_treeINSt7__cxx1112basic_stringIcSt11char_traitsIcESaIcEEESt4pairIKS5_S5_ESt10_Select1stIS8_ESt4lessIS5_ESaIS8_EE6_S_keyEPKSt18_Rb_tree_node_base@plt>
    5c4f:	48 89 c2             	mov    %rax,%rdx
    5c52:	48 8b 45 a8          	mov    -0x58(%rbp),%rax
    5c56:	48 8b 4d 98          	mov    -0x68(%rbp),%rcx
    5c5a:	48 89 ce             	mov    %rcx,%rsi
    5c5d:	48 89 c7             	mov    %rax,%rdi
    5c60:	e8 cb f2 ff ff       	callq  4f30 <_ZNKSt4lessINSt7__cxx1112basic_stringIcSt11char_traitsIcESaIcEEEEclERKS5_S8_@plt>
    5c65:	84 c0                	test   %al,%al
    5c67:	74 60                	je     5cc9 <_ZNSt8_Rb_treeINSt7__cxx1112basic_stringIcSt11char_traitsIcESaIcEEESt4pairIKS5_S5_ESt10_Select1stIS8_ESt4lessIS5_ESaIS8_EE29_M_get_insert_hint_unique_posESt23_Rb_tree_const_iteratorIS8_ERS7_+0x345>
    5c69:	48 8b 45 b0          	mov    -0x50(%rbp),%rax
    5c6d:	48 89 c7             	mov    %rax,%rdi
    5c70:	e8 ab ee ff ff       	callq  4b20 <_ZNSt8_Rb_treeINSt7__cxx1112basic_stringIcSt11char_traitsIcESaIcEEESt4pairIKS5_S5_ESt10_Select1stIS8_ESt4lessIS5_ESaIS8_EE8_S_rightEPSt18_Rb_tree_node_base@plt>
    5c75:	48 85 c0             	test   %rax,%rax
    5c78:	0f 94 c0             	sete   %al
    5c7b:	84 c0                	test   %al,%al
    5c7d:	74 29                	je     5ca8 <_ZNSt8_Rb_treeINSt7__cxx1112basic_stringIcSt11char_traitsIcESaIcEEESt4pairIKS5_S5_ESt10_Select1stIS8_ESt4lessIS5_ESaIS8_EE29_M_get_insert_hint_unique_posESt23_Rb_tree_const_iteratorIS8_ERS7_+0x324>
    5c7f:	48 c7 45 c8 00 00 00 	movq   $0x0,-0x38(%rbp)
    5c86:	00 
    5c87:	48 8d 55 b0          	lea    -0x50(%rbp),%rdx
    5c8b:	48 8d 4d c8          	lea    -0x38(%rbp),%rcx
    5c8f:	48 8d 45 d0          	lea    -0x30(%rbp),%rax
    5c93:	48 89 ce             	mov    %rcx,%rsi
    5c96:	48 89 c7             	mov    %rax,%rdi
    5c99:	e8 82 f1 ff ff       	callq  4e20 <_ZNSt4pairIPSt18_Rb_tree_node_baseS1_EC1ERKS1_S4_@plt>
    5c9e:	48 8b 45 d0          	mov    -0x30(%rbp),%rax
    5ca2:	48 8b 55 d8          	mov    -0x28(%rbp),%rdx
    5ca6:	eb 5d                	jmp    5d05 <_ZNSt8_Rb_treeINSt7__cxx1112basic_stringIcSt11char_traitsIcESaIcEEESt4pairIKS5_S5_ESt10_Select1stIS8_ESt4lessIS5_ESaIS8_EE29_M_get_insert_hint_unique_posESt23_Rb_tree_const_iteratorIS8_ERS7_+0x381>
    5ca8:	48 8d 55 c0          	lea    -0x40(%rbp),%rdx
    5cac:	48 8d 4d c0          	lea    -0x40(%rbp),%rcx
    5cb0:	48 8d 45 d0          	lea    -0x30(%rbp),%rax
    5cb4:	48 89 ce             	mov    %rcx,%rsi
    5cb7:	48 89 c7             	mov    %rax,%rdi
    5cba:	e8 61 f1 ff ff       	callq  4e20 <_ZNSt4pairIPSt18_Rb_tree_node_baseS1_EC1ERKS1_S4_@plt>
    5cbf:	48 8b 45 d0          	mov    -0x30(%rbp),%rax
    5cc3:	48 8b 55 d8          	mov    -0x28(%rbp),%rdx
    5cc7:	eb 3c                	jmp    5d05 <_ZNSt8_Rb_treeINSt7__cxx1112basic_stringIcSt11char_traitsIcESaIcEEESt4pairIKS5_S5_ESt10_Select1stIS8_ESt4lessIS5_ESaIS8_EE29_M_get_insert_hint_unique_posESt23_Rb_tree_const_iteratorIS8_ERS7_+0x381>
    5cc9:	48 8b 55 98          	mov    -0x68(%rbp),%rdx
    5ccd:	48 8b 45 a8          	mov    -0x58(%rbp),%rax
    5cd1:	48 89 d6             	mov    %rdx,%rsi
    5cd4:	48 89 c7             	mov    %rax,%rdi
    5cd7:	e8 64 f1 ff ff       	callq  4e40 <_ZNSt8_Rb_treeINSt7__cxx1112basic_stringIcSt11char_traitsIcESaIcEEESt4pairIKS5_S5_ESt10_Select1stIS8_ESt4lessIS5_ESaIS8_EE24_M_get_insert_unique_posERS7_@plt>
    5cdc:	eb 27                	jmp    5d05 <_ZNSt8_Rb_treeINSt7__cxx1112basic_stringIcSt11char_traitsIcESaIcEEESt4pairIKS5_S5_ESt10_Select1stIS8_ESt4lessIS5_ESaIS8_EE29_M_get_insert_hint_unique_posESt23_Rb_tree_const_iteratorIS8_ERS7_+0x381>
    5cde:	48 c7 45 c8 00 00 00 	movq   $0x0,-0x38(%rbp)
    5ce5:	00 
    5ce6:	48 8d 55 c8          	lea    -0x38(%rbp),%rdx
    5cea:	48 8d 4d b0          	lea    -0x50(%rbp),%rcx
    5cee:	48 8d 45 d0          	lea    -0x30(%rbp),%rax
    5cf2:	48 89 ce             	mov    %rcx,%rsi
    5cf5:	48 89 c7             	mov    %rax,%rdi
    5cf8:	e8 23 f1 ff ff       	callq  4e20 <_ZNSt4pairIPSt18_Rb_tree_node_baseS1_EC1ERKS1_S4_@plt>
    5cfd:	48 8b 45 d0          	mov    -0x30(%rbp),%rax
    5d01:	48 8b 55 d8          	mov    -0x28(%rbp),%rdx
    5d05:	48 8b 5d e8          	mov    -0x18(%rbp),%rbx
    5d09:	64 48 33 1c 25 28 00 	xor    %fs:0x28,%rbx
    5d10:	00 00 
    5d12:	74 05                	je     5d19 <_ZNSt8_Rb_treeINSt7__cxx1112basic_stringIcSt11char_traitsIcESaIcEEESt4pairIKS5_S5_ESt10_Select1stIS8_ESt4lessIS5_ESaIS8_EE29_M_get_insert_hint_unique_posESt23_Rb_tree_const_iteratorIS8_ERS7_+0x395>
    5d14:	e8 a7 f0 ff ff       	callq  4dc0 <__stack_chk_fail@plt>
    5d19:	48 83 c4 68          	add    $0x68,%rsp
    5d1d:	5b                   	pop    %rbx
    5d1e:	5d                   	pop    %rbp
    5d1f:	c3                   	retq   

0000000000005d20 <_ZNKSt10_Select1stISt4pairIKNSt7__cxx1112basic_stringIcSt11char_traitsIcESaIcEEES6_EEclERKS8_>:
    5d20:	55                   	push   %rbp
    5d21:	48 89 e5             	mov    %rsp,%rbp
    5d24:	48 89 7d f8          	mov    %rdi,-0x8(%rbp)
    5d28:	48 89 75 f0          	mov    %rsi,-0x10(%rbp)
    5d2c:	48 8b 45 f0          	mov    -0x10(%rbp),%rax
    5d30:	5d                   	pop    %rbp
    5d31:	c3                   	retq   

0000000000005d32 <_ZNSt8_Rb_treeINSt7__cxx1112basic_stringIcSt11char_traitsIcESaIcEEESt4pairIKS5_S5_ESt10_Select1stIS8_ESt4lessIS5_ESaIS8_EE10_M_insert_INSE_11_Alloc_nodeEEESt17_Rb_tree_iteratorIS8_EPSt18_Rb_tree_node_baseSK_RKS8_RT_>:
    5d32:	55                   	push   %rbp
    5d33:	48 89 e5             	mov    %rsp,%rbp
    5d36:	41 54                	push   %r12
    5d38:	53                   	push   %rbx
    5d39:	48 83 ec 60          	sub    $0x60,%rsp
    5d3d:	48 89 7d b8          	mov    %rdi,-0x48(%rbp)
    5d41:	48 89 75 b0          	mov    %rsi,-0x50(%rbp)
    5d45:	48 89 55 a8          	mov    %rdx,-0x58(%rbp)
    5d49:	48 89 4d a0          	mov    %rcx,-0x60(%rbp)
    5d4d:	4c 89 45 98          	mov    %r8,-0x68(%rbp)
    5d51:	64 48 8b 04 25 28 00 	mov    %fs:0x28,%rax
    5d58:	00 00 
    5d5a:	48 89 45 e8          	mov    %rax,-0x18(%rbp)
    5d5e:	31 c0                	xor    %eax,%eax
    5d60:	bb 00 00 00 00       	mov    $0x0,%ebx
    5d65:	48 83 7d b0 00       	cmpq   $0x0,-0x50(%rbp)
    5d6a:	75 52                	jne    5dbe <_ZNSt8_Rb_treeINSt7__cxx1112basic_stringIcSt11char_traitsIcESaIcEEESt4pairIKS5_S5_ESt10_Select1stIS8_ESt4lessIS5_ESaIS8_EE10_M_insert_INSE_11_Alloc_nodeEEESt17_Rb_tree_iteratorIS8_EPSt18_Rb_tree_node_baseSK_RKS8_RT_+0x8c>
    5d6c:	48 8b 45 b8          	mov    -0x48(%rbp),%rax
    5d70:	48 89 c7             	mov    %rax,%rdi
    5d73:	e8 08 ee ff ff       	callq  4b80 <_ZNSt8_Rb_treeINSt7__cxx1112basic_stringIcSt11char_traitsIcESaIcEEESt4pairIKS5_S5_ESt10_Select1stIS8_ESt4lessIS5_ESaIS8_EE6_M_endEv@plt>
    5d78:	48 3b 45 a8          	cmp    -0x58(%rbp),%rax
    5d7c:	74 40                	je     5dbe <_ZNSt8_Rb_treeINSt7__cxx1112basic_stringIcSt11char_traitsIcESaIcEEESt4pairIKS5_S5_ESt10_Select1stIS8_ESt4lessIS5_ESaIS8_EE10_M_insert_INSE_11_Alloc_nodeEEESt17_Rb_tree_iteratorIS8_EPSt18_Rb_tree_node_baseSK_RKS8_RT_+0x8c>
    5d7e:	48 8b 45 a8          	mov    -0x58(%rbp),%rax
    5d82:	48 89 c7             	mov    %rax,%rdi
    5d85:	e8 16 f2 ff ff       	callq  4fa0 <_ZNSt8_Rb_treeINSt7__cxx1112basic_stringIcSt11char_traitsIcESaIcEEESt4pairIKS5_S5_ESt10_Select1stIS8_ESt4lessIS5_ESaIS8_EE6_S_keyEPKSt18_Rb_tree_node_base@plt>
    5d8a:	49 89 c4             	mov    %rax,%r12
    5d8d:	bb 01 00 00 00       	mov    $0x1,%ebx
    5d92:	48 8b 55 a0          	mov    -0x60(%rbp),%rdx
    5d96:	48 8d 45 ce          	lea    -0x32(%rbp),%rax
    5d9a:	48 89 d6             	mov    %rdx,%rsi
    5d9d:	48 89 c7             	mov    %rax,%rdi
    5da0:	e8 9b ef ff ff       	callq  4d40 <_ZNKSt10_Select1stISt4pairIKNSt7__cxx1112basic_stringIcSt11char_traitsIcESaIcEEES6_EEclERKS8_@plt>
    5da5:	48 89 c1             	mov    %rax,%rcx
    5da8:	48 8b 45 b8          	mov    -0x48(%rbp),%rax
    5dac:	4c 89 e2             	mov    %r12,%rdx
    5daf:	48 89 ce             	mov    %rcx,%rsi
    5db2:	48 89 c7             	mov    %rax,%rdi
    5db5:	e8 76 f1 ff ff       	callq  4f30 <_ZNKSt4lessINSt7__cxx1112basic_stringIcSt11char_traitsIcESaIcEEEEclERKS5_S8_@plt>
    5dba:	84 c0                	test   %al,%al
    5dbc:	74 07                	je     5dc5 <_ZNSt8_Rb_treeINSt7__cxx1112basic_stringIcSt11char_traitsIcESaIcEEESt4pairIKS5_S5_ESt10_Select1stIS8_ESt4lessIS5_ESaIS8_EE10_M_insert_INSE_11_Alloc_nodeEEESt17_Rb_tree_iteratorIS8_EPSt18_Rb_tree_node_baseSK_RKS8_RT_+0x93>
    5dbe:	b8 01 00 00 00       	mov    $0x1,%eax
    5dc3:	eb 05                	jmp    5dca <_ZNSt8_Rb_treeINSt7__cxx1112basic_stringIcSt11char_traitsIcESaIcEEESt4pairIKS5_S5_ESt10_Select1stIS8_ESt4lessIS5_ESaIS8_EE10_M_insert_INSE_11_Alloc_nodeEEESt17_Rb_tree_iteratorIS8_EPSt18_Rb_tree_node_baseSK_RKS8_RT_+0x98>
    5dc5:	b8 00 00 00 00       	mov    $0x0,%eax
    5dca:	88 45 cf             	mov    %al,-0x31(%rbp)
    5dcd:	84 db                	test   %bl,%bl
    5dcf:	90                   	nop
    5dd0:	48 8b 55 a0          	mov    -0x60(%rbp),%rdx
    5dd4:	48 8b 45 98          	mov    -0x68(%rbp),%rax
    5dd8:	48 89 d6             	mov    %rdx,%rsi
    5ddb:	48 89 c7             	mov    %rax,%rdi
    5dde:	e8 ad ee ff ff       	callq  4c90 <_ZNKSt8_Rb_treeINSt7__cxx1112basic_stringIcSt11char_traitsIcESaIcEEESt4pairIKS5_S5_ESt10_Select1stIS8_ESt4lessIS5_ESaIS8_EE11_Alloc_nodeclIS8_EEPSt13_Rb_tree_nodeIS8_ERKT_@plt>
    5de3:	48 89 45 e0          	mov    %rax,-0x20(%rbp)
    5de7:	48 8b 45 b8          	mov    -0x48(%rbp),%rax
    5deb:	48 8d 48 08          	lea    0x8(%rax),%rcx
    5def:	0f b6 45 cf          	movzbl -0x31(%rbp),%eax
    5df3:	48 8b 55 a8          	mov    -0x58(%rbp),%rdx
    5df7:	48 8b 75 e0          	mov    -0x20(%rbp),%rsi
    5dfb:	89 c7                	mov    %eax,%edi
    5dfd:	e8 7e ef ff ff       	callq  4d80 <_ZSt29_Rb_tree_insert_and_rebalancebPSt18_Rb_tree_node_baseS0_RS_@plt>
    5e02:	48 8b 45 b8          	mov    -0x48(%rbp),%rax
    5e06:	48 8b 40 28          	mov    0x28(%rax),%rax
    5e0a:	48 8d 50 01          	lea    0x1(%rax),%rdx
    5e0e:	48 8b 45 b8          	mov    -0x48(%rbp),%rax
    5e12:	48 89 50 28          	mov    %rdx,0x28(%rax)
    5e16:	48 8b 55 e0          	mov    -0x20(%rbp),%rdx
    5e1a:	48 8d 45 d0          	lea    -0x30(%rbp),%rax
    5e1e:	48 89 d6             	mov    %rdx,%rsi
    5e21:	48 89 c7             	mov    %rax,%rdi
    5e24:	e8 a7 ec ff ff       	callq  4ad0 <_ZNSt17_Rb_tree_iteratorISt4pairIKNSt7__cxx1112basic_stringIcSt11char_traitsIcESaIcEEES6_EEC1EPSt18_Rb_tree_node_base@plt>
    5e29:	48 8b 45 d0          	mov    -0x30(%rbp),%rax
    5e2d:	48 8b 5d e8          	mov    -0x18(%rbp),%rbx
    5e31:	64 48 33 1c 25 28 00 	xor    %fs:0x28,%rbx
    5e38:	00 00 
    5e3a:	74 12                	je     5e4e <_ZNSt8_Rb_treeINSt7__cxx1112basic_stringIcSt11char_traitsIcESaIcEEESt4pairIKS5_S5_ESt10_Select1stIS8_ESt4lessIS5_ESaIS8_EE10_M_insert_INSE_11_Alloc_nodeEEESt17_Rb_tree_iteratorIS8_EPSt18_Rb_tree_node_baseSK_RKS8_RT_+0x11c>
    5e3c:	eb 0b                	jmp    5e49 <_ZNSt8_Rb_treeINSt7__cxx1112basic_stringIcSt11char_traitsIcESaIcEEESt4pairIKS5_S5_ESt10_Select1stIS8_ESt4lessIS5_ESaIS8_EE10_M_insert_INSE_11_Alloc_nodeEEESt17_Rb_tree_iteratorIS8_EPSt18_Rb_tree_node_baseSK_RKS8_RT_+0x117>
    5e3e:	84 db                	test   %bl,%bl
    5e40:	90                   	nop
    5e41:	48 89 c7             	mov    %rax,%rdi
    5e44:	e8 47 f1 ff ff       	callq  4f90 <_Unwind_Resume@plt>
    5e49:	e8 72 ef ff ff       	callq  4dc0 <__stack_chk_fail@plt>
    5e4e:	48 83 c4 60          	add    $0x60,%rsp
    5e52:	5b                   	pop    %rbx
    5e53:	41 5c                	pop    %r12
    5e55:	5d                   	pop    %rbp
    5e56:	c3                   	retq   

0000000000005e57 <_ZNSt8_Rb_treeINSt7__cxx1112basic_stringIcSt11char_traitsIcESaIcEEESt4pairIKS5_S5_ESt10_Select1stIS8_ESt4lessIS5_ESaIS8_EE8_S_valueEPKSt13_Rb_tree_nodeIS8_E>:
    5e57:	55                   	push   %rbp
    5e58:	48 89 e5             	mov    %rsp,%rbp
    5e5b:	48 83 ec 10          	sub    $0x10,%rsp
    5e5f:	48 89 7d f8          	mov    %rdi,-0x8(%rbp)
    5e63:	48 8b 45 f8          	mov    -0x8(%rbp),%rax
    5e67:	48 89 c7             	mov    %rax,%rdi
    5e6a:	e8 61 eb ff ff       	callq  49d0 <_ZNKSt13_Rb_tree_nodeISt4pairIKNSt7__cxx1112basic_stringIcSt11char_traitsIcESaIcEEES6_EE9_M_valptrEv@plt>
    5e6f:	c9                   	leaveq 
    5e70:	c3                   	retq   
    5e71:	90                   	nop

0000000000005e72 <_ZNKSt23_Rb_tree_const_iteratorISt4pairIKNSt7__cxx1112basic_stringIcSt11char_traitsIcESaIcEEES6_EE13_M_const_castEv>:
    5e72:	55                   	push   %rbp
    5e73:	48 89 e5             	mov    %rsp,%rbp
    5e76:	48 83 ec 20          	sub    $0x20,%rsp
    5e7a:	48 89 7d e8          	mov    %rdi,-0x18(%rbp)
    5e7e:	64 48 8b 04 25 28 00 	mov    %fs:0x28,%rax
    5e85:	00 00 
    5e87:	48 89 45 f8          	mov    %rax,-0x8(%rbp)
    5e8b:	31 c0                	xor    %eax,%eax
    5e8d:	48 8b 45 e8          	mov    -0x18(%rbp),%rax
    5e91:	48 8b 10             	mov    (%rax),%rdx
    5e94:	48 8d 45 f0          	lea    -0x10(%rbp),%rax
    5e98:	48 89 d6             	mov    %rdx,%rsi
    5e9b:	48 89 c7             	mov    %rax,%rdi
    5e9e:	e8 2d ec ff ff       	callq  4ad0 <_ZNSt17_Rb_tree_iteratorISt4pairIKNSt7__cxx1112basic_stringIcSt11char_traitsIcESaIcEEES6_EEC1EPSt18_Rb_tree_node_base@plt>
    5ea3:	48 8b 45 f0          	mov    -0x10(%rbp),%rax
    5ea7:	48 8b 4d f8          	mov    -0x8(%rbp),%rcx
    5eab:	64 48 33 0c 25 28 00 	xor    %fs:0x28,%rcx
    5eb2:	00 00 
    5eb4:	74 05                	je     5ebb <_ZNKSt23_Rb_tree_const_iteratorISt4pairIKNSt7__cxx1112basic_stringIcSt11char_traitsIcESaIcEEES6_EE13_M_const_castEv+0x49>
    5eb6:	e8 05 ef ff ff       	callq  4dc0 <__stack_chk_fail@plt>
    5ebb:	c9                   	leaveq 
    5ebc:	c3                   	retq   
    5ebd:	90                   	nop

0000000000005ebe <_ZNKSt8_Rb_treeINSt7__cxx1112basic_stringIcSt11char_traitsIcESaIcEEESt4pairIKS5_S5_ESt10_Select1stIS8_ESt4lessIS5_ESaIS8_EE4sizeEv>:
    5ebe:	55                   	push   %rbp
    5ebf:	48 89 e5             	mov    %rsp,%rbp
    5ec2:	48 89 7d f8          	mov    %rdi,-0x8(%rbp)
    5ec6:	48 8b 45 f8          	mov    -0x8(%rbp),%rax
    5eca:	48 8b 40 28          	mov    0x28(%rax),%rax
    5ece:	5d                   	pop    %rbp
    5ecf:	c3                   	retq   

0000000000005ed0 <_ZNSt8_Rb_treeINSt7__cxx1112basic_stringIcSt11char_traitsIcESaIcEEESt4pairIKS5_S5_ESt10_Select1stIS8_ESt4lessIS5_ESaIS8_EE12_M_rightmostEv>:
    5ed0:	55                   	push   %rbp
    5ed1:	48 89 e5             	mov    %rsp,%rbp
    5ed4:	48 89 7d f8          	mov    %rdi,-0x8(%rbp)
    5ed8:	48 8b 45 f8          	mov    -0x8(%rbp),%rax
    5edc:	48 83 c0 20          	add    $0x20,%rax
    5ee0:	5d                   	pop    %rbp
    5ee1:	c3                   	retq   

0000000000005ee2 <_ZNSt8_Rb_treeINSt7__cxx1112basic_stringIcSt11char_traitsIcESaIcEEESt4pairIKS5_S5_ESt10_Select1stIS8_ESt4lessIS5_ESaIS8_EE6_S_keyEPKSt18_Rb_tree_node_base>:
    5ee2:	55                   	push   %rbp
    5ee3:	48 89 e5             	mov    %rsp,%rbp
    5ee6:	48 83 ec 20          	sub    $0x20,%rsp
    5eea:	48 89 7d e8          	mov    %rdi,-0x18(%rbp)
    5eee:	64 48 8b 04 25 28 00 	mov    %fs:0x28,%rax
    5ef5:	00 00 
    5ef7:	48 89 45 f8          	mov    %rax,-0x8(%rbp)
    5efb:	31 c0                	xor    %eax,%eax
    5efd:	48 8b 45 e8          	mov    -0x18(%rbp),%rax
    5f01:	48 89 c7             	mov    %rax,%rdi
    5f04:	e8 97 ec ff ff       	callq  4ba0 <_ZNSt8_Rb_treeINSt7__cxx1112basic_stringIcSt11char_traitsIcESaIcEEESt4pairIKS5_S5_ESt10_Select1stIS8_ESt4lessIS5_ESaIS8_EE8_S_valueEPKSt18_Rb_tree_node_base@plt>
    5f09:	48 89 c2             	mov    %rax,%rdx
    5f0c:	48 8d 45 f7          	lea    -0x9(%rbp),%rax
    5f10:	48 89 d6             	mov    %rdx,%rsi
    5f13:	48 89 c7             	mov    %rax,%rdi
    5f16:	e8 25 ee ff ff       	callq  4d40 <_ZNKSt10_Select1stISt4pairIKNSt7__cxx1112basic_stringIcSt11char_traitsIcESaIcEEES6_EEclERKS8_@plt>
    5f1b:	48 8b 4d f8          	mov    -0x8(%rbp),%rcx
    5f1f:	64 48 33 0c 25 28 00 	xor    %fs:0x28,%rcx
    5f26:	00 00 
    5f28:	74 05                	je     5f2f <_ZNSt8_Rb_treeINSt7__cxx1112basic_stringIcSt11char_traitsIcESaIcEEESt4pairIKS5_S5_ESt10_Select1stIS8_ESt4lessIS5_ESaIS8_EE6_S_keyEPKSt18_Rb_tree_node_base+0x4d>
    5f2a:	e8 91 ee ff ff       	callq  4dc0 <__stack_chk_fail@plt>
    5f2f:	c9                   	leaveq 
    5f30:	c3                   	retq   
    5f31:	90                   	nop

0000000000005f32 <_ZNSt4pairIPSt18_Rb_tree_node_baseS1_EC1ERKS1_S4_>:
    5f32:	55                   	push   %rbp
    5f33:	48 89 e5             	mov    %rsp,%rbp
    5f36:	48 89 7d f8          	mov    %rdi,-0x8(%rbp)
    5f3a:	48 89 75 f0          	mov    %rsi,-0x10(%rbp)
    5f3e:	48 89 55 e8          	mov    %rdx,-0x18(%rbp)
    5f42:	48 8b 45 f0          	mov    -0x10(%rbp),%rax
    5f46:	48 8b 10             	mov    (%rax),%rdx
    5f49:	48 8b 45 f8          	mov    -0x8(%rbp),%rax
    5f4d:	48 89 10             	mov    %rdx,(%rax)
    5f50:	48 8b 45 e8          	mov    -0x18(%rbp),%rax
    5f54:	48 8b 10             	mov    (%rax),%rdx
    5f57:	48 8b 45 f8          	mov    -0x8(%rbp),%rax
    5f5b:	48 89 50 08          	mov    %rdx,0x8(%rax)
    5f5f:	90                   	nop
    5f60:	5d                   	pop    %rbp
    5f61:	c3                   	retq   

0000000000005f62 <_ZNSt8_Rb_treeINSt7__cxx1112basic_stringIcSt11char_traitsIcESaIcEEESt4pairIKS5_S5_ESt10_Select1stIS8_ESt4lessIS5_ESaIS8_EE24_M_get_insert_unique_posERS7_>:
    5f62:	55                   	push   %rbp
    5f63:	48 89 e5             	mov    %rsp,%rbp
    5f66:	48 83 ec 70          	sub    $0x70,%rsp
    5f6a:	48 89 7d 98          	mov    %rdi,-0x68(%rbp)
    5f6e:	48 89 75 90          	mov    %rsi,-0x70(%rbp)
    5f72:	64 48 8b 04 25 28 00 	mov    %fs:0x28,%rax
    5f79:	00 00 
    5f7b:	48 89 45 f8          	mov    %rax,-0x8(%rbp)
    5f7f:	31 c0                	xor    %eax,%eax
    5f81:	48 8b 45 98          	mov    -0x68(%rbp),%rax
    5f85:	48 89 c7             	mov    %rax,%rdi
    5f88:	e8 d3 ea ff ff       	callq  4a60 <_ZNSt8_Rb_treeINSt7__cxx1112basic_stringIcSt11char_traitsIcESaIcEEESt4pairIKS5_S5_ESt10_Select1stIS8_ESt4lessIS5_ESaIS8_EE8_M_beginEv@plt>
    5f8d:	48 89 45 d0          	mov    %rax,-0x30(%rbp)
    5f91:	48 8b 45 98          	mov    -0x68(%rbp),%rax
    5f95:	48 89 c7             	mov    %rax,%rdi
    5f98:	e8 e3 eb ff ff       	callq  4b80 <_ZNSt8_Rb_treeINSt7__cxx1112basic_stringIcSt11char_traitsIcESaIcEEESt4pairIKS5_S5_ESt10_Select1stIS8_ESt4lessIS5_ESaIS8_EE6_M_endEv@plt>
    5f9d:	48 89 45 d8          	mov    %rax,-0x28(%rbp)
    5fa1:	c6 45 af 01          	movb   $0x1,-0x51(%rbp)
    5fa5:	48 83 7d d0 00       	cmpq   $0x0,-0x30(%rbp)
    5faa:	74 53                	je     5fff <_ZNSt8_Rb_treeINSt7__cxx1112basic_stringIcSt11char_traitsIcESaIcEEESt4pairIKS5_S5_ESt10_Select1stIS8_ESt4lessIS5_ESaIS8_EE24_M_get_insert_unique_posERS7_+0x9d>
    5fac:	48 8b 45 d0          	mov    -0x30(%rbp),%rax
    5fb0:	48 89 45 d8          	mov    %rax,-0x28(%rbp)
    5fb4:	48 8b 45 d0          	mov    -0x30(%rbp),%rax
    5fb8:	48 89 c7             	mov    %rax,%rdi
    5fbb:	e8 10 ec ff ff       	callq  4bd0 <_ZNSt8_Rb_treeINSt7__cxx1112basic_stringIcSt11char_traitsIcESaIcEEESt4pairIKS5_S5_ESt10_Select1stIS8_ESt4lessIS5_ESaIS8_EE6_S_keyEPKSt13_Rb_tree_nodeIS8_E@plt>
    5fc0:	48 89 c2             	mov    %rax,%rdx
    5fc3:	48 8b 45 98          	mov    -0x68(%rbp),%rax
    5fc7:	48 8b 4d 90          	mov    -0x70(%rbp),%rcx
    5fcb:	48 89 ce             	mov    %rcx,%rsi
    5fce:	48 89 c7             	mov    %rax,%rdi
    5fd1:	e8 5a ef ff ff       	callq  4f30 <_ZNKSt4lessINSt7__cxx1112basic_stringIcSt11char_traitsIcESaIcEEEEclERKS5_S8_@plt>
    5fd6:	88 45 af             	mov    %al,-0x51(%rbp)
    5fd9:	80 7d af 00          	cmpb   $0x0,-0x51(%rbp)
    5fdd:	74 0e                	je     5fed <_ZNSt8_Rb_treeINSt7__cxx1112basic_stringIcSt11char_traitsIcESaIcEEESt4pairIKS5_S5_ESt10_Select1stIS8_ESt4lessIS5_ESaIS8_EE24_M_get_insert_unique_posERS7_+0x8b>
    5fdf:	48 8b 45 d0          	mov    -0x30(%rbp),%rax
    5fe3:	48 89 c7             	mov    %rax,%rdi
    5fe6:	e8 85 ed ff ff       	callq  4d70 <_ZNSt8_Rb_treeINSt7__cxx1112basic_stringIcSt11char_traitsIcESaIcEEESt4pairIKS5_S5_ESt10_Select1stIS8_ESt4lessIS5_ESaIS8_EE7_S_leftEPSt18_Rb_tree_node_base@plt>
    5feb:	eb 0c                	jmp    5ff9 <_ZNSt8_Rb_treeINSt7__cxx1112basic_stringIcSt11char_traitsIcESaIcEEESt4pairIKS5_S5_ESt10_Select1stIS8_ESt4lessIS5_ESaIS8_EE24_M_get_insert_unique_posERS7_+0x97>
    5fed:	48 8b 45 d0          	mov    -0x30(%rbp),%rax
    5ff1:	48 89 c7             	mov    %rax,%rdi
    5ff4:	e8 27 eb ff ff       	callq  4b20 <_ZNSt8_Rb_treeINSt7__cxx1112basic_stringIcSt11char_traitsIcESaIcEEESt4pairIKS5_S5_ESt10_Select1stIS8_ESt4lessIS5_ESaIS8_EE8_S_rightEPSt18_Rb_tree_node_base@plt>
    5ff9:	48 89 45 d0          	mov    %rax,-0x30(%rbp)
    5ffd:	eb a6                	jmp    5fa5 <_ZNSt8_Rb_treeINSt7__cxx1112basic_stringIcSt11char_traitsIcESaIcEEESt4pairIKS5_S5_ESt10_Select1stIS8_ESt4lessIS5_ESaIS8_EE24_M_get_insert_unique_posERS7_+0x43>
    5fff:	48 8b 55 d8          	mov    -0x28(%rbp),%rdx
    6003:	48 8d 45 b0          	lea    -0x50(%rbp),%rax
    6007:	48 89 d6             	mov    %rdx,%rsi
    600a:	48 89 c7             	mov    %rax,%rdi
    600d:	e8 be ea ff ff       	callq  4ad0 <_ZNSt17_Rb_tree_iteratorISt4pairIKNSt7__cxx1112basic_stringIcSt11char_traitsIcESaIcEEES6_EEC1EPSt18_Rb_tree_node_base@plt>
    6012:	80 7d af 00          	cmpb   $0x0,-0x51(%rbp)
    6016:	74 67                	je     607f <_ZNSt8_Rb_treeINSt7__cxx1112basic_stringIcSt11char_traitsIcESaIcEEESt4pairIKS5_S5_ESt10_Select1stIS8_ESt4lessIS5_ESaIS8_EE24_M_get_insert_unique_posERS7_+0x11d>
    6018:	48 8b 45 98          	mov    -0x68(%rbp),%rax
    601c:	48 89 c7             	mov    %rax,%rdi
    601f:	e8 5c ec ff ff       	callq  4c80 <_ZNSt8_Rb_treeINSt7__cxx1112basic_stringIcSt11char_traitsIcESaIcEEESt4pairIKS5_S5_ESt10_Select1stIS8_ESt4lessIS5_ESaIS8_EE5beginEv@plt>
    6024:	48 89 45 e0          	mov    %rax,-0x20(%rbp)
    6028:	48 8d 55 e0          	lea    -0x20(%rbp),%rdx
    602c:	48 8d 45 b0          	lea    -0x50(%rbp),%rax
    6030:	48 89 d6             	mov    %rdx,%rsi
    6033:	48 89 c7             	mov    %rax,%rdi
    6036:	e8 a5 eb ff ff       	callq  4be0 <_ZNKSt17_Rb_tree_iteratorISt4pairIKNSt7__cxx1112basic_stringIcSt11char_traitsIcESaIcEEES6_EEeqERKS9_@plt>
    603b:	84 c0                	test   %al,%al
    603d:	74 34                	je     6073 <_ZNSt8_Rb_treeINSt7__cxx1112basic_stringIcSt11char_traitsIcESaIcEEESt4pairIKS5_S5_ESt10_Select1stIS8_ESt4lessIS5_ESaIS8_EE24_M_get_insert_unique_posERS7_+0x111>
    603f:	48 8b 45 d8          	mov    -0x28(%rbp),%rax
    6043:	48 89 45 c8          	mov    %rax,-0x38(%rbp)
    6047:	48 8b 45 d0          	mov    -0x30(%rbp),%rax
    604b:	48 89 45 c0          	mov    %rax,-0x40(%rbp)
    604f:	48 8d 55 c8          	lea    -0x38(%rbp),%rdx
    6053:	48 8d 4d c0          	lea    -0x40(%rbp),%rcx
    6057:	48 8d 45 e0          	lea    -0x20(%rbp),%rax
    605b:	48 89 ce             	mov    %rcx,%rsi
    605e:	48 89 c7             	mov    %rax,%rdi
    6061:	e8 ba ed ff ff       	callq  4e20 <_ZNSt4pairIPSt18_Rb_tree_node_baseS1_EC1ERKS1_S4_@plt>
    6066:	48 8b 45 e0          	mov    -0x20(%rbp),%rax
    606a:	48 8b 55 e8          	mov    -0x18(%rbp),%rdx
    606e:	e9 8a 00 00 00       	jmpq   60fd <_ZNSt8_Rb_treeINSt7__cxx1112basic_stringIcSt11char_traitsIcESaIcEEESt4pairIKS5_S5_ESt10_Select1stIS8_ESt4lessIS5_ESaIS8_EE24_M_get_insert_unique_posERS7_+0x19b>
    6073:	48 8d 45 b0          	lea    -0x50(%rbp),%rax
    6077:	48 89 c7             	mov    %rax,%rdi
    607a:	e8 81 ee ff ff       	callq  4f00 <_ZNSt17_Rb_tree_iteratorISt4pairIKNSt7__cxx1112basic_stringIcSt11char_traitsIcESaIcEEES6_EEmmEv@plt>
    607f:	48 8b 45 b0          	mov    -0x50(%rbp),%rax
    6083:	48 89 c7             	mov    %rax,%rdi
    6086:	e8 15 ef ff ff       	callq  4fa0 <_ZNSt8_Rb_treeINSt7__cxx1112basic_stringIcSt11char_traitsIcESaIcEEESt4pairIKS5_S5_ESt10_Select1stIS8_ESt4lessIS5_ESaIS8_EE6_S_keyEPKSt18_Rb_tree_node_base@plt>
    608b:	48 89 c1             	mov    %rax,%rcx
    608e:	48 8b 45 98          	mov    -0x68(%rbp),%rax
    6092:	48 8b 55 90          	mov    -0x70(%rbp),%rdx
    6096:	48 89 ce             	mov    %rcx,%rsi
    6099:	48 89 c7             	mov    %rax,%rdi
    609c:	e8 8f ee ff ff       	callq  4f30 <_ZNKSt4lessINSt7__cxx1112basic_stringIcSt11char_traitsIcESaIcEEEEclERKS5_S8_@plt>
    60a1:	84 c0                	test   %al,%al
    60a3:	74 31                	je     60d6 <_ZNSt8_Rb_treeINSt7__cxx1112basic_stringIcSt11char_traitsIcESaIcEEESt4pairIKS5_S5_ESt10_Select1stIS8_ESt4lessIS5_ESaIS8_EE24_M_get_insert_unique_posERS7_+0x174>
    60a5:	48 8b 45 d8          	mov    -0x28(%rbp),%rax
    60a9:	48 89 45 c8          	mov    %rax,-0x38(%rbp)
    60ad:	48 8b 45 d0          	mov    -0x30(%rbp),%rax
    60b1:	48 89 45 c0          	mov    %rax,-0x40(%rbp)
    60b5:	48 8d 55 c8          	lea    -0x38(%rbp),%rdx
    60b9:	48 8d 4d c0          	lea    -0x40(%rbp),%rcx
    60bd:	48 8d 45 e0          	lea    -0x20(%rbp),%rax
    60c1:	48 89 ce             	mov    %rcx,%rsi
    60c4:	48 89 c7             	mov    %rax,%rdi
    60c7:	e8 54 ed ff ff       	callq  4e20 <_ZNSt4pairIPSt18_Rb_tree_node_baseS1_EC1ERKS1_S4_@plt>
    60cc:	48 8b 45 e0          	mov    -0x20(%rbp),%rax
    60d0:	48 8b 55 e8          	mov    -0x18(%rbp),%rdx
    60d4:	eb 27                	jmp    60fd <_ZNSt8_Rb_treeINSt7__cxx1112basic_stringIcSt11char_traitsIcESaIcEEESt4pairIKS5_S5_ESt10_Select1stIS8_ESt4lessIS5_ESaIS8_EE24_M_get_insert_unique_posERS7_+0x19b>
    60d6:	48 c7 45 c8 00 00 00 	movq   $0x0,-0x38(%rbp)
    60dd:	00 
    60de:	48 8d 55 c8          	lea    -0x38(%rbp),%rdx
    60e2:	48 8d 4d b0          	lea    -0x50(%rbp),%rcx
    60e6:	48 8d 45 e0          	lea    -0x20(%rbp),%rax
    60ea:	48 89 ce             	mov    %rcx,%rsi
    60ed:	48 89 c7             	mov    %rax,%rdi
    60f0:	e8 2b ed ff ff       	callq  4e20 <_ZNSt4pairIPSt18_Rb_tree_node_baseS1_EC1ERKS1_S4_@plt>
    60f5:	48 8b 45 e0          	mov    -0x20(%rbp),%rax
    60f9:	48 8b 55 e8          	mov    -0x18(%rbp),%rdx
    60fd:	48 8b 75 f8          	mov    -0x8(%rbp),%rsi
    6101:	64 48 33 34 25 28 00 	xor    %fs:0x28,%rsi
    6108:	00 00 
    610a:	74 05                	je     6111 <_ZNSt8_Rb_treeINSt7__cxx1112basic_stringIcSt11char_traitsIcESaIcEEESt4pairIKS5_S5_ESt10_Select1stIS8_ESt4lessIS5_ESaIS8_EE24_M_get_insert_unique_posERS7_+0x1af>
    610c:	e8 af ec ff ff       	callq  4dc0 <__stack_chk_fail@plt>
    6111:	c9                   	leaveq 
    6112:	c3                   	retq   
    6113:	90                   	nop

0000000000006114 <_ZNSt8_Rb_treeINSt7__cxx1112basic_stringIcSt11char_traitsIcESaIcEEESt4pairIKS5_S5_ESt10_Select1stIS8_ESt4lessIS5_ESaIS8_EE11_M_leftmostEv>:
    6114:	55                   	push   %rbp
    6115:	48 89 e5             	mov    %rsp,%rbp
    6118:	48 89 7d f8          	mov    %rdi,-0x8(%rbp)
    611c:	48 8b 45 f8          	mov    -0x8(%rbp),%rax
    6120:	48 83 c0 18          	add    $0x18,%rax
    6124:	5d                   	pop    %rbp
    6125:	c3                   	retq   

0000000000006126 <_ZNSt17_Rb_tree_iteratorISt4pairIKNSt7__cxx1112basic_stringIcSt11char_traitsIcESaIcEEES6_EEmmEv>:
    6126:	55                   	push   %rbp
    6127:	48 89 e5             	mov    %rsp,%rbp
    612a:	48 83 ec 10          	sub    $0x10,%rsp
    612e:	48 89 7d f8          	mov    %rdi,-0x8(%rbp)
    6132:	48 8b 45 f8          	mov    -0x8(%rbp),%rax
    6136:	48 8b 00             	mov    (%rax),%rax
    6139:	48 89 c7             	mov    %rax,%rdi
    613c:	e8 7f e9 ff ff       	callq  4ac0 <_ZSt18_Rb_tree_decrementPSt18_Rb_tree_node_base@plt>
    6141:	48 89 c2             	mov    %rax,%rdx
    6144:	48 8b 45 f8          	mov    -0x8(%rbp),%rax
    6148:	48 89 10             	mov    %rdx,(%rax)
    614b:	48 8b 45 f8          	mov    -0x8(%rbp),%rax
    614f:	c9                   	leaveq 
    6150:	c3                   	retq   
    6151:	90                   	nop

0000000000006152 <_ZNSt17_Rb_tree_iteratorISt4pairIKNSt7__cxx1112basic_stringIcSt11char_traitsIcESaIcEEES6_EEppEv>:
    6152:	55                   	push   %rbp
    6153:	48 89 e5             	mov    %rsp,%rbp
    6156:	48 83 ec 10          	sub    $0x10,%rsp
    615a:	48 89 7d f8          	mov    %rdi,-0x8(%rbp)
    615e:	48 8b 45 f8          	mov    -0x8(%rbp),%rax
    6162:	48 8b 00             	mov    (%rax),%rax
    6165:	48 89 c7             	mov    %rax,%rdi
    6168:	e8 23 ed ff ff       	callq  4e90 <_ZSt18_Rb_tree_incrementPSt18_Rb_tree_node_base@plt>
    616d:	48 89 c2             	mov    %rax,%rdx
    6170:	48 8b 45 f8          	mov    -0x8(%rbp),%rax
    6174:	48 89 10             	mov    %rdx,(%rax)
    6177:	48 8b 45 f8          	mov    -0x8(%rbp),%rax
    617b:	c9                   	leaveq 
    617c:	c3                   	retq   
    617d:	90                   	nop

000000000000617e <_ZNKSt8_Rb_treeINSt7__cxx1112basic_stringIcSt11char_traitsIcESaIcEEESt4pairIKS5_S5_ESt10_Select1stIS8_ESt4lessIS5_ESaIS8_EE11_Alloc_nodeclIS8_EEPSt13_Rb_tree_nodeIS8_ERKT_>:
    617e:	55                   	push   %rbp
    617f:	48 89 e5             	mov    %rsp,%rbp
    6182:	48 83 ec 10          	sub    $0x10,%rsp
    6186:	48 89 7d f8          	mov    %rdi,-0x8(%rbp)
    618a:	48 89 75 f0          	mov    %rsi,-0x10(%rbp)
    618e:	48 8b 45 f8          	mov    -0x8(%rbp),%rax
    6192:	48 8b 00             	mov    (%rax),%rax
    6195:	48 8b 55 f0          	mov    -0x10(%rbp),%rdx
    6199:	48 89 d6             	mov    %rdx,%rsi
    619c:	48 89 c7             	mov    %rax,%rdi
    619f:	e8 bc ea ff ff       	callq  4c60 <_ZNSt8_Rb_treeINSt7__cxx1112basic_stringIcSt11char_traitsIcESaIcEEESt4pairIKS5_S5_ESt10_Select1stIS8_ESt4lessIS5_ESaIS8_EE14_M_create_nodeERKS8_@plt>
    61a4:	c9                   	leaveq 
    61a5:	c3                   	retq   

00000000000061a6 <_ZNKSt13_Rb_tree_nodeISt4pairIKNSt7__cxx1112basic_stringIcSt11char_traitsIcESaIcEEES6_EE9_M_valptrEv>:
    61a6:	55                   	push   %rbp
    61a7:	48 89 e5             	mov    %rsp,%rbp
    61aa:	48 83 ec 10          	sub    $0x10,%rsp
    61ae:	48 89 7d f8          	mov    %rdi,-0x8(%rbp)
    61b2:	48 8b 45 f8          	mov    -0x8(%rbp),%rax
    61b6:	48 83 c0 20          	add    $0x20,%rax
    61ba:	48 89 c7             	mov    %rax,%rdi
    61bd:	e8 5e eb ff ff       	callq  4d20 <_ZSt11__addressofIKSt4pairIKNSt7__cxx1112basic_stringIcSt11char_traitsIcESaIcEEES6_EEPT_RSA_@plt>
    61c2:	c9                   	leaveq 
    61c3:	c3                   	retq   

00000000000061c4 <_ZNSt8_Rb_treeINSt7__cxx1112basic_stringIcSt11char_traitsIcESaIcEEESt4pairIKS5_S5_ESt10_Select1stIS8_ESt4lessIS5_ESaIS8_EE8_S_valueEPKSt18_Rb_tree_node_base>:
    61c4:	55                   	push   %rbp
    61c5:	48 89 e5             	mov    %rsp,%rbp
    61c8:	48 83 ec 10          	sub    $0x10,%rsp
    61cc:	48 89 7d f8          	mov    %rdi,-0x8(%rbp)
    61d0:	48 8b 45 f8          	mov    -0x8(%rbp),%rax
    61d4:	48 89 c7             	mov    %rax,%rdi
    61d7:	e8 f4 e7 ff ff       	callq  49d0 <_ZNKSt13_Rb_tree_nodeISt4pairIKNSt7__cxx1112basic_stringIcSt11char_traitsIcESaIcEEES6_EE9_M_valptrEv@plt>
    61dc:	c9                   	leaveq 
    61dd:	c3                   	retq   

00000000000061de <_ZNSt8_Rb_treeINSt7__cxx1112basic_stringIcSt11char_traitsIcESaIcEEESt4pairIKS5_S5_ESt10_Select1stIS8_ESt4lessIS5_ESaIS8_EE5beginEv>:
    61de:	55                   	push   %rbp
    61df:	48 89 e5             	mov    %rsp,%rbp
    61e2:	48 83 ec 20          	sub    $0x20,%rsp
    61e6:	48 89 7d e8          	mov    %rdi,-0x18(%rbp)
    61ea:	64 48 8b 04 25 28 00 	mov    %fs:0x28,%rax
    61f1:	00 00 
    61f3:	48 89 45 f8          	mov    %rax,-0x8(%rbp)
    61f7:	31 c0                	xor    %eax,%eax
    61f9:	48 8b 45 e8          	mov    -0x18(%rbp),%rax
    61fd:	48 8b 50 18          	mov    0x18(%rax),%rdx
    6201:	48 8d 45 f0          	lea    -0x10(%rbp),%rax
    6205:	48 89 d6             	mov    %rdx,%rsi
    6208:	48 89 c7             	mov    %rax,%rdi
    620b:	e8 c0 e8 ff ff       	callq  4ad0 <_ZNSt17_Rb_tree_iteratorISt4pairIKNSt7__cxx1112basic_stringIcSt11char_traitsIcESaIcEEES6_EEC1EPSt18_Rb_tree_node_base@plt>
    6210:	48 8b 45 f0          	mov    -0x10(%rbp),%rax
    6214:	48 8b 4d f8          	mov    -0x8(%rbp),%rcx
    6218:	64 48 33 0c 25 28 00 	xor    %fs:0x28,%rcx
    621f:	00 00 
    6221:	74 05                	je     6228 <_ZNSt8_Rb_treeINSt7__cxx1112basic_stringIcSt11char_traitsIcESaIcEEESt4pairIKS5_S5_ESt10_Select1stIS8_ESt4lessIS5_ESaIS8_EE5beginEv+0x4a>
    6223:	e8 98 eb ff ff       	callq  4dc0 <__stack_chk_fail@plt>
    6228:	c9                   	leaveq 
    6229:	c3                   	retq   

000000000000622a <_ZNSt8_Rb_treeINSt7__cxx1112basic_stringIcSt11char_traitsIcESaIcEEESt4pairIKS5_S5_ESt10_Select1stIS8_ESt4lessIS5_ESaIS8_EE14_M_create_nodeERKS8_>:
    622a:	55                   	push   %rbp
    622b:	48 89 e5             	mov    %rsp,%rbp
    622e:	48 83 ec 20          	sub    $0x20,%rsp
    6232:	48 89 7d e8          	mov    %rdi,-0x18(%rbp)
    6236:	48 89 75 e0          	mov    %rsi,-0x20(%rbp)
    623a:	48 8b 45 e8          	mov    -0x18(%rbp),%rax
    623e:	48 89 c7             	mov    %rax,%rdi
    6241:	e8 8a ea ff ff       	callq  4cd0 <_ZNSt8_Rb_treeINSt7__cxx1112basic_stringIcSt11char_traitsIcESaIcEEESt4pairIKS5_S5_ESt10_Select1stIS8_ESt4lessIS5_ESaIS8_EE11_M_get_nodeEv@plt>
    6246:	48 89 45 f8          	mov    %rax,-0x8(%rbp)
    624a:	48 8b 55 e0          	mov    -0x20(%rbp),%rdx
    624e:	48 8b 4d f8          	mov    -0x8(%rbp),%rcx
    6252:	48 8b 45 e8          	mov    -0x18(%rbp),%rax
    6256:	48 89 ce             	mov    %rcx,%rsi
    6259:	48 89 c7             	mov    %rax,%rdi
    625c:	e8 cf e7 ff ff       	callq  4a30 <_ZNSt8_Rb_treeINSt7__cxx1112basic_stringIcSt11char_traitsIcESaIcEEESt4pairIKS5_S5_ESt10_Select1stIS8_ESt4lessIS5_ESaIS8_EE17_M_construct_nodeEPSt13_Rb_tree_nodeIS8_ERKS8_@plt>
    6261:	48 8b 45 f8          	mov    -0x8(%rbp),%rax
    6265:	c9                   	leaveq 
    6266:	c3                   	retq   

0000000000006267 <_ZSt11__addressofIKSt4pairIKNSt7__cxx1112basic_stringIcSt11char_traitsIcESaIcEEES6_EEPT_RSA_>:
    6267:	55                   	push   %rbp
    6268:	48 89 e5             	mov    %rsp,%rbp
    626b:	48 89 7d f8          	mov    %rdi,-0x8(%rbp)
    626f:	48 8b 45 f8          	mov    -0x8(%rbp),%rax
    6273:	5d                   	pop    %rbp
    6274:	c3                   	retq   
    6275:	90                   	nop

0000000000006276 <_ZNSt8_Rb_treeINSt7__cxx1112basic_stringIcSt11char_traitsIcESaIcEEESt4pairIKS5_S5_ESt10_Select1stIS8_ESt4lessIS5_ESaIS8_EE11_M_get_nodeEv>:
    6276:	55                   	push   %rbp
    6277:	48 89 e5             	mov    %rsp,%rbp
    627a:	48 83 ec 10          	sub    $0x10,%rsp
    627e:	48 89 7d f8          	mov    %rdi,-0x8(%rbp)
    6282:	48 8b 45 f8          	mov    -0x8(%rbp),%rax
    6286:	48 89 c7             	mov    %rax,%rdi
    6289:	e8 c2 e8 ff ff       	callq  4b50 <_ZNSt8_Rb_treeINSt7__cxx1112basic_stringIcSt11char_traitsIcESaIcEEESt4pairIKS5_S5_ESt10_Select1stIS8_ESt4lessIS5_ESaIS8_EE21_M_get_Node_allocatorEv@plt>
    628e:	be 01 00 00 00       	mov    $0x1,%esi
    6293:	48 89 c7             	mov    %rax,%rdi
    6296:	e8 c5 ea ff ff       	callq  4d60 <_ZN9__gnu_cxx14__alloc_traitsISaISt13_Rb_tree_nodeISt4pairIKNSt7__cxx1112basic_stringIcSt11char_traitsIcESaIcEEES8_EEEE8allocateERSC_m@plt>
    629b:	c9                   	leaveq 
    629c:	c3                   	retq   
    629d:	90                   	nop

000000000000629e <_ZNSt8_Rb_treeINSt7__cxx1112basic_stringIcSt11char_traitsIcESaIcEEESt4pairIKS5_S5_ESt10_Select1stIS8_ESt4lessIS5_ESaIS8_EE17_M_construct_nodeEPSt13_Rb_tree_nodeIS8_ERKS8_>:
    629e:	55                   	push   %rbp
    629f:	48 89 e5             	mov    %rsp,%rbp
    62a2:	53                   	push   %rbx
    62a3:	48 83 ec 38          	sub    $0x38,%rsp
    62a7:	48 89 7d d8          	mov    %rdi,-0x28(%rbp)
    62ab:	48 89 75 d0          	mov    %rsi,-0x30(%rbp)
    62af:	48 89 55 c8          	mov    %rdx,-0x38(%rbp)
    62b3:	64 48 8b 04 25 28 00 	mov    %fs:0x28,%rax
    62ba:	00 00 
    62bc:	48 89 45 e8          	mov    %rax,-0x18(%rbp)
    62c0:	31 c0                	xor    %eax,%eax
    62c2:	48 8b 45 d0          	mov    -0x30(%rbp),%rax
    62c6:	48 89 c7             	mov    %rax,%rdi
    62c9:	e8 f2 e9 ff ff       	callq  4cc0 <_ZNSt13_Rb_tree_nodeISt4pairIKNSt7__cxx1112basic_stringIcSt11char_traitsIcESaIcEEES6_EE9_M_valptrEv@plt>
    62ce:	48 89 c3             	mov    %rax,%rbx
    62d1:	48 8d 45 e7          	lea    -0x19(%rbp),%rax
    62d5:	48 8b 55 d8          	mov    -0x28(%rbp),%rdx
    62d9:	48 89 d6             	mov    %rdx,%rsi
    62dc:	48 89 c7             	mov    %rax,%rdi
    62df:	e8 dc eb ff ff       	callq  4ec0 <_ZNKSt8_Rb_treeINSt7__cxx1112basic_stringIcSt11char_traitsIcESaIcEEESt4pairIKS5_S5_ESt10_Select1stIS8_ESt4lessIS5_ESaIS8_EE13get_allocatorEv@plt>
    62e4:	48 8b 55 c8          	mov    -0x38(%rbp),%rdx
    62e8:	48 8d 45 e7          	lea    -0x19(%rbp),%rax
    62ec:	48 89 de             	mov    %rbx,%rsi
    62ef:	48 89 c7             	mov    %rax,%rdi
    62f2:	e8 79 e9 ff ff       	callq  4c70 <_ZN9__gnu_cxx13new_allocatorISt4pairIKNSt7__cxx1112basic_stringIcSt11char_traitsIcESaIcEEES7_EE9constructEPS9_RKS9_@plt>
    62f7:	48 8d 45 e7          	lea    -0x19(%rbp),%rax
    62fb:	48 89 c7             	mov    %rax,%rdi
    62fe:	e8 dd e9 ff ff       	callq  4ce0 <_ZNSaISt4pairIKNSt7__cxx1112basic_stringIcSt11char_traitsIcESaIcEEES5_EED1Ev@plt>
    6303:	90                   	nop
    6304:	48 8b 45 e8          	mov    -0x18(%rbp),%rax
    6308:	64 48 33 04 25 28 00 	xor    %fs:0x28,%rax
    630f:	00 00 
    6311:	74 4e                	je     6361 <_ZNSt8_Rb_treeINSt7__cxx1112basic_stringIcSt11char_traitsIcESaIcEEESt4pairIKS5_S5_ESt10_Select1stIS8_ESt4lessIS5_ESaIS8_EE17_M_construct_nodeEPSt13_Rb_tree_nodeIS8_ERKS8_+0xc3>
    6313:	eb 47                	jmp    635c <_ZNSt8_Rb_treeINSt7__cxx1112basic_stringIcSt11char_traitsIcESaIcEEESt4pairIKS5_S5_ESt10_Select1stIS8_ESt4lessIS5_ESaIS8_EE17_M_construct_nodeEPSt13_Rb_tree_nodeIS8_ERKS8_+0xbe>
    6315:	48 89 c3             	mov    %rax,%rbx
    6318:	48 8d 45 e7          	lea    -0x19(%rbp),%rax
    631c:	48 89 c7             	mov    %rax,%rdi
    631f:	e8 bc e9 ff ff       	callq  4ce0 <_ZNSaISt4pairIKNSt7__cxx1112basic_stringIcSt11char_traitsIcESaIcEEES5_EED1Ev@plt>
    6324:	48 89 d8             	mov    %rbx,%rax
    6327:	eb 00                	jmp    6329 <_ZNSt8_Rb_treeINSt7__cxx1112basic_stringIcSt11char_traitsIcESaIcEEESt4pairIKS5_S5_ESt10_Select1stIS8_ESt4lessIS5_ESaIS8_EE17_M_construct_nodeEPSt13_Rb_tree_nodeIS8_ERKS8_+0x8b>
    6329:	48 89 c7             	mov    %rax,%rdi
    632c:	e8 af eb ff ff       	callq  4ee0 <__cxa_begin_catch@plt>
    6331:	48 8b 55 d0          	mov    -0x30(%rbp),%rdx
    6335:	48 8b 45 d8          	mov    -0x28(%rbp),%rax
    6339:	48 89 d6             	mov    %rdx,%rsi
    633c:	48 89 c7             	mov    %rax,%rdi
    633f:	e8 cc e8 ff ff       	callq  4c10 <_ZNSt8_Rb_treeINSt7__cxx1112basic_stringIcSt11char_traitsIcESaIcEEESt4pairIKS5_S5_ESt10_Select1stIS8_ESt4lessIS5_ESaIS8_EE11_M_put_nodeEPSt13_Rb_tree_nodeIS8_E@plt>
    6344:	e8 27 e7 ff ff       	callq  4a70 <__cxa_rethrow@plt>
    6349:	48 89 c3             	mov    %rax,%rbx
    634c:	e8 4f eb ff ff       	callq  4ea0 <__cxa_end_catch@plt>
    6351:	48 89 d8             	mov    %rbx,%rax
    6354:	48 89 c7             	mov    %rax,%rdi
    6357:	e8 34 ec ff ff       	callq  4f90 <_Unwind_Resume@plt>
    635c:	e8 5f ea ff ff       	callq  4dc0 <__stack_chk_fail@plt>
    6361:	48 83 c4 38          	add    $0x38,%rsp
    6365:	5b                   	pop    %rbx
    6366:	5d                   	pop    %rbp
    6367:	c3                   	retq   

0000000000006368 <_ZN9__gnu_cxx14__alloc_traitsISaISt13_Rb_tree_nodeISt4pairIKNSt7__cxx1112basic_stringIcSt11char_traitsIcESaIcEEES8_EEEE8allocateERSC_m>:
    6368:	55                   	push   %rbp
    6369:	48 89 e5             	mov    %rsp,%rbp
    636c:	48 83 ec 10          	sub    $0x10,%rsp
    6370:	48 89 7d f8          	mov    %rdi,-0x8(%rbp)
    6374:	48 89 75 f0          	mov    %rsi,-0x10(%rbp)
    6378:	48 8b 4d f0          	mov    -0x10(%rbp),%rcx
    637c:	48 8b 45 f8          	mov    -0x8(%rbp),%rax
    6380:	ba 00 00 00 00       	mov    $0x0,%edx
    6385:	48 89 ce             	mov    %rcx,%rsi
    6388:	48 89 c7             	mov    %rax,%rdi
    638b:	e8 70 e9 ff ff       	callq  4d00 <_ZN9__gnu_cxx13new_allocatorISt13_Rb_tree_nodeISt4pairIKNSt7__cxx1112basic_stringIcSt11char_traitsIcESaIcEEES8_EEE8allocateEmPKv@plt>
    6390:	c9                   	leaveq 
    6391:	c3                   	retq   

0000000000006392 <_ZNSt8_Rb_treeINSt7__cxx1112basic_stringIcSt11char_traitsIcESaIcEEESt4pairIKS5_S5_ESt10_Select1stIS8_ESt4lessIS5_ESaIS8_EE21_M_get_Node_allocatorEv>:
    6392:	55                   	push   %rbp
    6393:	48 89 e5             	mov    %rsp,%rbp
    6396:	48 89 7d f8          	mov    %rdi,-0x8(%rbp)
    639a:	48 8b 45 f8          	mov    -0x8(%rbp),%rax
    639e:	5d                   	pop    %rbp
    639f:	c3                   	retq   

00000000000063a0 <_ZNKSt8_Rb_treeINSt7__cxx1112basic_stringIcSt11char_traitsIcESaIcEEESt4pairIKS5_S5_ESt10_Select1stIS8_ESt4lessIS5_ESaIS8_EE13get_allocatorEv>:
    63a0:	55                   	push   %rbp
    63a1:	48 89 e5             	mov    %rsp,%rbp
    63a4:	48 83 ec 10          	sub    $0x10,%rsp
    63a8:	48 89 7d f8          	mov    %rdi,-0x8(%rbp)
    63ac:	48 89 75 f0          	mov    %rsi,-0x10(%rbp)
    63b0:	48 8b 45 f0          	mov    -0x10(%rbp),%rax
    63b4:	48 89 c7             	mov    %rax,%rdi
    63b7:	e8 b4 e7 ff ff       	callq  4b70 <_ZNKSt8_Rb_treeINSt7__cxx1112basic_stringIcSt11char_traitsIcESaIcEEESt4pairIKS5_S5_ESt10_Select1stIS8_ESt4lessIS5_ESaIS8_EE21_M_get_Node_allocatorEv@plt>
    63bc:	48 89 c2             	mov    %rax,%rdx
    63bf:	48 8b 45 f8          	mov    -0x8(%rbp),%rax
    63c3:	48 89 d6             	mov    %rdx,%rsi
    63c6:	48 89 c7             	mov    %rax,%rdi
    63c9:	e8 12 ea ff ff       	callq  4de0 <_ZNSaISt4pairIKNSt7__cxx1112basic_stringIcSt11char_traitsIcESaIcEEES5_EEC1ISt13_Rb_tree_nodeIS7_EEERKSaIT_E@plt>
    63ce:	48 8b 45 f8          	mov    -0x8(%rbp),%rax
    63d2:	c9                   	leaveq 
    63d3:	c3                   	retq   

00000000000063d4 <_ZNSaISt4pairIKNSt7__cxx1112basic_stringIcSt11char_traitsIcESaIcEEES5_EED1Ev>:
    63d4:	55                   	push   %rbp
    63d5:	48 89 e5             	mov    %rsp,%rbp
    63d8:	48 83 ec 10          	sub    $0x10,%rsp
    63dc:	48 89 7d f8          	mov    %rdi,-0x8(%rbp)
    63e0:	48 8b 45 f8          	mov    -0x8(%rbp),%rax
    63e4:	48 89 c7             	mov    %rax,%rdi
    63e7:	e8 04 e9 ff ff       	callq  4cf0 <_ZN9__gnu_cxx13new_allocatorISt4pairIKNSt7__cxx1112basic_stringIcSt11char_traitsIcESaIcEEES7_EED2Ev@plt>
    63ec:	90                   	nop
    63ed:	c9                   	leaveq 
    63ee:	c3                   	retq   
    63ef:	90                   	nop

00000000000063f0 <_ZNSt4pairIKNSt7__cxx1112basic_stringIcSt11char_traitsIcESaIcEEES5_EC1ERKS7_>:
    63f0:	55                   	push   %rbp
    63f1:	48 89 e5             	mov    %rsp,%rbp
    63f4:	53                   	push   %rbx
    63f5:	48 83 ec 18          	sub    $0x18,%rsp
    63f9:	48 89 7d e8          	mov    %rdi,-0x18(%rbp)
    63fd:	48 89 75 e0          	mov    %rsi,-0x20(%rbp)
    6401:	48 8b 55 e0          	mov    -0x20(%rbp),%rdx
    6405:	48 8b 45 e8          	mov    -0x18(%rbp),%rax
    6409:	48 89 d6             	mov    %rdx,%rsi
    640c:	48 89 c7             	mov    %rax,%rdi
    640f:	e8 fc ea ff ff       	callq  4f10 <_ZNSt7__cxx1112basic_stringIcSt11char_traitsIcESaIcEEC1ERKS4_@plt>
    6414:	48 8b 45 e0          	mov    -0x20(%rbp),%rax
    6418:	48 8d 50 20          	lea    0x20(%rax),%rdx
    641c:	48 8b 45 e8          	mov    -0x18(%rbp),%rax
    6420:	48 83 c0 20          	add    $0x20,%rax
    6424:	48 89 d6             	mov    %rdx,%rsi
    6427:	48 89 c7             	mov    %rax,%rdi
    642a:	e8 e1 ea ff ff       	callq  4f10 <_ZNSt7__cxx1112basic_stringIcSt11char_traitsIcESaIcEEC1ERKS4_@plt>
    642f:	eb 1a                	jmp    644b <_ZNSt4pairIKNSt7__cxx1112basic_stringIcSt11char_traitsIcESaIcEEES5_EC1ERKS7_+0x5b>
    6431:	48 89 c3             	mov    %rax,%rbx
    6434:	48 8b 45 e8          	mov    -0x18(%rbp),%rax
    6438:	48 89 c7             	mov    %rax,%rdi
    643b:	e8 70 e7 ff ff       	callq  4bb0 <_ZNSt7__cxx1112basic_stringIcSt11char_traitsIcESaIcEED1Ev@plt>
    6440:	48 89 d8             	mov    %rbx,%rax
    6443:	48 89 c7             	mov    %rax,%rdi
    6446:	e8 45 eb ff ff       	callq  4f90 <_Unwind_Resume@plt>
    644b:	48 83 c4 18          	add    $0x18,%rsp
    644f:	5b                   	pop    %rbx
    6450:	5d                   	pop    %rbp
    6451:	c3                   	retq   

0000000000006452 <_ZN9__gnu_cxx13new_allocatorISt4pairIKNSt7__cxx1112basic_stringIcSt11char_traitsIcESaIcEEES7_EE9constructEPS9_RKS9_>:
    6452:	55                   	push   %rbp
    6453:	48 89 e5             	mov    %rsp,%rbp
    6456:	41 55                	push   %r13
    6458:	41 54                	push   %r12
    645a:	53                   	push   %rbx
    645b:	48 83 ec 28          	sub    $0x28,%rsp
    645f:	48 89 7d d8          	mov    %rdi,-0x28(%rbp)
    6463:	48 89 75 d0          	mov    %rsi,-0x30(%rbp)
    6467:	48 89 55 c8          	mov    %rdx,-0x38(%rbp)
    646b:	4c 8b 65 d0          	mov    -0x30(%rbp),%r12
    646f:	4c 89 e6             	mov    %r12,%rsi
    6472:	bf 40 00 00 00       	mov    $0x40,%edi
    6477:	e8 84 e6 ff ff       	callq  4b00 <_ZnwmPv@plt>
    647c:	48 89 c3             	mov    %rax,%rbx
    647f:	48 85 db             	test   %rbx,%rbx
    6482:	74 2a                	je     64ae <_ZN9__gnu_cxx13new_allocatorISt4pairIKNSt7__cxx1112basic_stringIcSt11char_traitsIcESaIcEEES7_EE9constructEPS9_RKS9_+0x5c>
    6484:	48 8b 45 c8          	mov    -0x38(%rbp),%rax
    6488:	48 89 c6             	mov    %rax,%rsi
    648b:	48 89 df             	mov    %rbx,%rdi
    648e:	e8 9d e7 ff ff       	callq  4c30 <_ZNSt4pairIKNSt7__cxx1112basic_stringIcSt11char_traitsIcESaIcEEES5_EC1ERKS7_@plt>
    6493:	eb 19                	jmp    64ae <_ZN9__gnu_cxx13new_allocatorISt4pairIKNSt7__cxx1112basic_stringIcSt11char_traitsIcESaIcEEES7_EE9constructEPS9_RKS9_+0x5c>
    6495:	49 89 c5             	mov    %rax,%r13
    6498:	4c 89 e6             	mov    %r12,%rsi
    649b:	48 89 df             	mov    %rbx,%rdi
    649e:	e8 ad ea ff ff       	callq  4f50 <_ZdlPvS_@plt>
    64a3:	4c 89 e8             	mov    %r13,%rax
    64a6:	48 89 c7             	mov    %rax,%rdi
    64a9:	e8 e2 ea ff ff       	callq  4f90 <_Unwind_Resume@plt>
    64ae:	90                   	nop
    64af:	48 83 c4 28          	add    $0x28,%rsp
    64b3:	5b                   	pop    %rbx
    64b4:	41 5c                	pop    %r12
    64b6:	41 5d                	pop    %r13
    64b8:	5d                   	pop    %rbp
    64b9:	c3                   	retq   

00000000000064ba <_ZNSt8_Rb_treeINSt7__cxx1112basic_stringIcSt11char_traitsIcESaIcEEESt4pairIKS5_S5_ESt10_Select1stIS8_ESt4lessIS5_ESaIS8_EE11_M_put_nodeEPSt13_Rb_tree_nodeIS8_E>:
    64ba:	55                   	push   %rbp
    64bb:	48 89 e5             	mov    %rsp,%rbp
    64be:	48 83 ec 10          	sub    $0x10,%rsp
    64c2:	48 89 7d f8          	mov    %rdi,-0x8(%rbp)
    64c6:	48 89 75 f0          	mov    %rsi,-0x10(%rbp)
    64ca:	48 8b 45 f8          	mov    -0x8(%rbp),%rax
    64ce:	48 89 c7             	mov    %rax,%rdi
    64d1:	e8 7a e6 ff ff       	callq  4b50 <_ZNSt8_Rb_treeINSt7__cxx1112basic_stringIcSt11char_traitsIcESaIcEEESt4pairIKS5_S5_ESt10_Select1stIS8_ESt4lessIS5_ESaIS8_EE21_M_get_Node_allocatorEv@plt>
    64d6:	48 89 c1             	mov    %rax,%rcx
    64d9:	48 8b 45 f0          	mov    -0x10(%rbp),%rax
    64dd:	ba 01 00 00 00       	mov    $0x1,%edx
    64e2:	48 89 c6             	mov    %rax,%rsi
    64e5:	48 89 cf             	mov    %rcx,%rdi
    64e8:	e8 43 e6 ff ff       	callq  4b30 <_ZN9__gnu_cxx14__alloc_traitsISaISt13_Rb_tree_nodeISt4pairIKNSt7__cxx1112basic_stringIcSt11char_traitsIcESaIcEEES8_EEEE10deallocateERSC_PSB_m@plt>
    64ed:	90                   	nop
    64ee:	c9                   	leaveq 
    64ef:	c3                   	retq   

00000000000064f0 <_ZN9__gnu_cxx13new_allocatorISt13_Rb_tree_nodeISt4pairIKNSt7__cxx1112basic_stringIcSt11char_traitsIcESaIcEEES8_EEE8allocateEmPKv>:
    64f0:	55                   	push   %rbp
    64f1:	48 89 e5             	mov    %rsp,%rbp
    64f4:	48 83 ec 20          	sub    $0x20,%rsp
    64f8:	48 89 7d f8          	mov    %rdi,-0x8(%rbp)
    64fc:	48 89 75 f0          	mov    %rsi,-0x10(%rbp)
    6500:	48 89 55 e8          	mov    %rdx,-0x18(%rbp)
    6504:	48 8b 45 f8          	mov    -0x8(%rbp),%rax
    6508:	48 89 c7             	mov    %rax,%rdi
    650b:	e8 60 e9 ff ff       	callq  4e70 <_ZNK9__gnu_cxx13new_allocatorISt13_Rb_tree_nodeISt4pairIKNSt7__cxx1112basic_stringIcSt11char_traitsIcESaIcEEES8_EEE8max_sizeEv@plt>
    6510:	48 3b 45 f0          	cmp    -0x10(%rbp),%rax
    6514:	0f 92 c0             	setb   %al
    6517:	84 c0                	test   %al,%al
    6519:	74 05                	je     6520 <_ZN9__gnu_cxx13new_allocatorISt13_Rb_tree_nodeISt4pairIKNSt7__cxx1112basic_stringIcSt11char_traitsIcESaIcEEES8_EEE8allocateEmPKv+0x30>
    651b:	e8 90 e9 ff ff       	callq  4eb0 <_ZSt17__throw_bad_allocv@plt>
    6520:	48 8b 55 f0          	mov    -0x10(%rbp),%rdx
    6524:	48 89 d0             	mov    %rdx,%rax
    6527:	48 01 c0             	add    %rax,%rax
    652a:	48 01 d0             	add    %rdx,%rax
    652d:	48 c1 e0 05          	shl    $0x5,%rax
    6531:	48 89 c7             	mov    %rax,%rdi
    6534:	e8 37 ea ff ff       	callq  4f70 <_Znwm@plt>
    6539:	c9                   	leaveq 
    653a:	c3                   	retq   
    653b:	90                   	nop

000000000000653c <_ZNKSt8_Rb_treeINSt7__cxx1112basic_stringIcSt11char_traitsIcESaIcEEESt4pairIKS5_S5_ESt10_Select1stIS8_ESt4lessIS5_ESaIS8_EE21_M_get_Node_allocatorEv>:
    653c:	55                   	push   %rbp
    653d:	48 89 e5             	mov    %rsp,%rbp
    6540:	48 89 7d f8          	mov    %rdi,-0x8(%rbp)
    6544:	48 8b 45 f8          	mov    -0x8(%rbp),%rax
    6548:	5d                   	pop    %rbp
    6549:	c3                   	retq   

000000000000654a <_ZNSaISt4pairIKNSt7__cxx1112basic_stringIcSt11char_traitsIcESaIcEEES5_EEC1ISt13_Rb_tree_nodeIS7_EEERKSaIT_E>:
    654a:	55                   	push   %rbp
    654b:	48 89 e5             	mov    %rsp,%rbp
    654e:	48 83 ec 10          	sub    $0x10,%rsp
    6552:	48 89 7d f8          	mov    %rdi,-0x8(%rbp)
    6556:	48 89 75 f0          	mov    %rsi,-0x10(%rbp)
    655a:	48 8b 45 f8          	mov    -0x8(%rbp),%rax
    655e:	48 89 c7             	mov    %rax,%rdi
    6561:	e8 4a e5 ff ff       	callq  4ab0 <_ZN9__gnu_cxx13new_allocatorISt4pairIKNSt7__cxx1112basic_stringIcSt11char_traitsIcESaIcEEES7_EEC2Ev@plt>
    6566:	90                   	nop
    6567:	c9                   	leaveq 
    6568:	c3                   	retq   
    6569:	90                   	nop

000000000000656a <_ZN9__gnu_cxx13new_allocatorISt4pairIKNSt7__cxx1112basic_stringIcSt11char_traitsIcESaIcEEES7_EED1Ev>:
    656a:	55                   	push   %rbp
    656b:	48 89 e5             	mov    %rsp,%rbp
    656e:	48 89 7d f8          	mov    %rdi,-0x8(%rbp)
    6572:	90                   	nop
    6573:	5d                   	pop    %rbp
    6574:	c3                   	retq   

0000000000006575 <_ZN9__gnu_cxx14__alloc_traitsISaISt13_Rb_tree_nodeISt4pairIKNSt7__cxx1112basic_stringIcSt11char_traitsIcESaIcEEES8_EEEE10deallocateERSC_PSB_m>:
    6575:	55                   	push   %rbp
    6576:	48 89 e5             	mov    %rsp,%rbp
    6579:	48 83 ec 20          	sub    $0x20,%rsp
    657d:	48 89 7d f8          	mov    %rdi,-0x8(%rbp)
    6581:	48 89 75 f0          	mov    %rsi,-0x10(%rbp)
    6585:	48 89 55 e8          	mov    %rdx,-0x18(%rbp)
    6589:	48 8b 55 e8          	mov    -0x18(%rbp),%rdx
    658d:	48 8b 4d f0          	mov    -0x10(%rbp),%rcx
    6591:	48 8b 45 f8          	mov    -0x8(%rbp),%rax
    6595:	48 89 ce             	mov    %rcx,%rsi
    6598:	48 89 c7             	mov    %rax,%rdi
    659b:	e8 40 e5 ff ff       	callq  4ae0 <_ZN9__gnu_cxx13new_allocatorISt13_Rb_tree_nodeISt4pairIKNSt7__cxx1112basic_stringIcSt11char_traitsIcESaIcEEES8_EEE10deallocateEPSB_m@plt>
    65a0:	90                   	nop
    65a1:	c9                   	leaveq 
    65a2:	c3                   	retq   
    65a3:	90                   	nop

00000000000065a4 <_ZNK9__gnu_cxx13new_allocatorISt13_Rb_tree_nodeISt4pairIKNSt7__cxx1112basic_stringIcSt11char_traitsIcESaIcEEES8_EEE8max_sizeEv>:
    65a4:	55                   	push   %rbp
    65a5:	48 89 e5             	mov    %rsp,%rbp
    65a8:	48 89 7d f8          	mov    %rdi,-0x8(%rbp)
    65ac:	48 b8 aa aa aa aa aa 	movabs $0x2aaaaaaaaaaaaaa,%rax
    65b3:	aa aa 02 
    65b6:	5d                   	pop    %rbp
    65b7:	c3                   	retq   

00000000000065b8 <_ZN9__gnu_cxx13new_allocatorISt4pairIKNSt7__cxx1112basic_stringIcSt11char_traitsIcESaIcEEES7_EEC1Ev>:
    65b8:	55                   	push   %rbp
    65b9:	48 89 e5             	mov    %rsp,%rbp
    65bc:	48 89 7d f8          	mov    %rdi,-0x8(%rbp)
    65c0:	90                   	nop
    65c1:	5d                   	pop    %rbp
    65c2:	c3                   	retq   
    65c3:	90                   	nop

00000000000065c4 <_ZN9__gnu_cxx13new_allocatorISt13_Rb_tree_nodeISt4pairIKNSt7__cxx1112basic_stringIcSt11char_traitsIcESaIcEEES8_EEE10deallocateEPSB_m>:
    65c4:	55                   	push   %rbp
    65c5:	48 89 e5             	mov    %rsp,%rbp
    65c8:	48 83 ec 20          	sub    $0x20,%rsp
    65cc:	48 89 7d f8          	mov    %rdi,-0x8(%rbp)
    65d0:	48 89 75 f0          	mov    %rsi,-0x10(%rbp)
    65d4:	48 89 55 e8          	mov    %rdx,-0x18(%rbp)
    65d8:	48 8b 45 f0          	mov    -0x10(%rbp),%rax
    65dc:	48 89 c7             	mov    %rax,%rdi
    65df:	e8 5c e4 ff ff       	callq  4a40 <_ZdlPv@plt>
    65e4:	90                   	nop
    65e5:	c9                   	leaveq 
    65e6:	c3                   	retq   

00000000000065e7 <_Z3putNSt7__cxx1112basic_stringIcSt11char_traitsIcESaIcEEES4_i>:
    65e7:	55                   	push   %rbp
    65e8:	48 89 e5             	mov    %rsp,%rbp
    65eb:	53                   	push   %rbx
    65ec:	48 81 ec f8 00 00 00 	sub    $0xf8,%rsp
    65f3:	48 89 bd 18 ff ff ff 	mov    %rdi,-0xe8(%rbp)
    65fa:	48 89 b5 10 ff ff ff 	mov    %rsi,-0xf0(%rbp)
    6601:	89 95 0c ff ff ff    	mov    %edx,-0xf4(%rbp)
    6607:	64 48 8b 04 25 28 00 	mov    %fs:0x28,%rax
    660e:	00 00 
    6610:	48 89 45 e8          	mov    %rax,-0x18(%rbp)
    6614:	31 c0                	xor    %eax,%eax
    6616:	48 8b 85 18 ff ff ff 	mov    -0xe8(%rbp),%rax
    661d:	48 89 c7             	mov    %rax,%rdi
    6620:	e8 0b e8 ff ff       	callq  4e30 <_ZNKSt7__cxx1112basic_stringIcSt11char_traitsIcESaIcEE4sizeEv@plt>
    6625:	48 83 f8 14          	cmp    $0x14,%rax
    6629:	77 15                	ja     6640 <_Z3putNSt7__cxx1112basic_stringIcSt11char_traitsIcESaIcEEES4_i+0x59>
    662b:	48 8b 85 10 ff ff ff 	mov    -0xf0(%rbp),%rax
    6632:	48 89 c7             	mov    %rax,%rdi
    6635:	e8 f6 e7 ff ff       	callq  4e30 <_ZNKSt7__cxx1112basic_stringIcSt11char_traitsIcESaIcEE4sizeEv@plt>
    663a:	48 83 f8 63          	cmp    $0x63,%rax
    663e:	76 07                	jbe    6647 <_Z3putNSt7__cxx1112basic_stringIcSt11char_traitsIcESaIcEEES4_i+0x60>
    6640:	b8 01 00 00 00       	mov    $0x1,%eax
    6645:	eb 05                	jmp    664c <_Z3putNSt7__cxx1112basic_stringIcSt11char_traitsIcESaIcEEES4_i+0x65>
    6647:	b8 00 00 00 00       	mov    $0x0,%eax
    664c:	84 c0                	test   %al,%al
    664e:	74 35                	je     6685 <_Z3putNSt7__cxx1112basic_stringIcSt11char_traitsIcESaIcEEES4_i+0x9e>
    6650:	48 8d 35 75 04 00 00 	lea    0x475(%rip),%rsi        # 6acc <_fini+0x20>
    6657:	48 8b 05 92 19 20 00 	mov    0x201992(%rip),%rax        # 207ff0 <_DYNAMIC+0x218>
    665e:	48 89 c7             	mov    %rax,%rdi
    6661:	e8 da e4 ff ff       	callq  4b40 <_ZStlsISt11char_traitsIcEERSt13basic_ostreamIcT_ES5_PKc@plt>
    6666:	48 89 c2             	mov    %rax,%rdx
    6669:	48 8b 05 88 19 20 00 	mov    0x201988(%rip),%rax        # 207ff8 <_DYNAMIC+0x220>
    6670:	48 89 c6             	mov    %rax,%rsi
    6673:	48 89 d7             	mov    %rdx,%rdi
    6676:	e8 d5 e7 ff ff       	callq  4e50 <_ZNSolsEPFRSoS_E@plt>
    667b:	b8 01 00 00 00       	mov    $0x1,%eax
    6680:	e9 bc 00 00 00       	jmpq   6741 <_Z3putNSt7__cxx1112basic_stringIcSt11char_traitsIcESaIcEEES4_i+0x15a>
    6685:	48 8b 95 10 ff ff ff 	mov    -0xf0(%rbp),%rdx
    668c:	48 8d 85 40 ff ff ff 	lea    -0xc0(%rbp),%rax
    6693:	48 89 d6             	mov    %rdx,%rsi
    6696:	48 89 c7             	mov    %rax,%rdi
    6699:	e8 72 e8 ff ff       	callq  4f10 <_ZNSt7__cxx1112basic_stringIcSt11char_traitsIcESaIcEEC1ERKS4_@plt>
    669e:	48 8b 95 18 ff ff ff 	mov    -0xe8(%rbp),%rdx
    66a5:	48 8d 85 20 ff ff ff 	lea    -0xe0(%rbp),%rax
    66ac:	48 89 d6             	mov    %rdx,%rsi
    66af:	48 89 c7             	mov    %rax,%rdi
    66b2:	e8 59 e8 ff ff       	callq  4f10 <_ZNSt7__cxx1112basic_stringIcSt11char_traitsIcESaIcEEC1ERKS4_@plt>
    66b7:	48 8d 85 60 ff ff ff 	lea    -0xa0(%rbp),%rax
    66be:	48 8d 95 40 ff ff ff 	lea    -0xc0(%rbp),%rdx
    66c5:	48 8d 8d 20 ff ff ff 	lea    -0xe0(%rbp),%rcx
    66cc:	48 89 ce             	mov    %rcx,%rsi
    66cf:	48 89 c7             	mov    %rax,%rdi
    66d2:	e8 19 e8 ff ff       	callq  4ef0 <_ZSt9make_pairINSt7__cxx1112basic_stringIcSt11char_traitsIcESaIcEEES5_ESt4pairIT_T0_ES7_S8_@plt>
    66d7:	48 8d 95 60 ff ff ff 	lea    -0xa0(%rbp),%rdx
    66de:	48 8d 45 a0          	lea    -0x60(%rbp),%rax
    66e2:	48 89 d6             	mov    %rdx,%rsi
    66e5:	48 89 c7             	mov    %rax,%rdi
    66e8:	e8 73 e7 ff ff       	callq  4e60 <_ZNSt4pairIKNSt7__cxx1112basic_stringIcSt11char_traitsIcESaIcEEES5_EC1IS5_S5_EERKS_IT_T0_E@plt>
    66ed:	48 8d 45 a0          	lea    -0x60(%rbp),%rax
    66f1:	48 89 c6             	mov    %rax,%rsi
    66f4:	48 8b 05 ed 18 20 00 	mov    0x2018ed(%rip),%rax        # 207fe8 <_DYNAMIC+0x210>
    66fb:	48 89 c7             	mov    %rax,%rdi
    66fe:	e8 fd e2 ff ff       	callq  4a00 <_ZNSt3mapINSt7__cxx1112basic_stringIcSt11char_traitsIcESaIcEEES5_St4lessIS5_ESaISt4pairIKS5_S5_EEE6insertERKSA_@plt>
    6703:	48 8d 45 a0          	lea    -0x60(%rbp),%rax
    6707:	48 89 c7             	mov    %rax,%rdi
    670a:	e8 a1 e6 ff ff       	callq  4db0 <_ZNSt4pairIKNSt7__cxx1112basic_stringIcSt11char_traitsIcESaIcEEES5_ED1Ev@plt>
    670f:	48 8d 85 60 ff ff ff 	lea    -0xa0(%rbp),%rax
    6716:	48 89 c7             	mov    %rax,%rdi
    6719:	e8 f2 e5 ff ff       	callq  4d10 <_ZNSt4pairINSt7__cxx1112basic_stringIcSt11char_traitsIcESaIcEEES5_ED1Ev@plt>
    671e:	48 8d 85 20 ff ff ff 	lea    -0xe0(%rbp),%rax
    6725:	48 89 c7             	mov    %rax,%rdi
    6728:	e8 83 e4 ff ff       	callq  4bb0 <_ZNSt7__cxx1112basic_stringIcSt11char_traitsIcESaIcEED1Ev@plt>
    672d:	48 8d 85 40 ff ff ff 	lea    -0xc0(%rbp),%rax
    6734:	48 89 c7             	mov    %rax,%rdi
    6737:	e8 74 e4 ff ff       	callq  4bb0 <_ZNSt7__cxx1112basic_stringIcSt11char_traitsIcESaIcEED1Ev@plt>
    673c:	b8 00 00 00 00       	mov    $0x0,%eax
    6741:	48 8b 4d e8          	mov    -0x18(%rbp),%rcx
    6745:	64 48 33 0c 25 28 00 	xor    %fs:0x28,%rcx
    674c:	00 00 
    674e:	74 5d                	je     67ad <_Z3putNSt7__cxx1112basic_stringIcSt11char_traitsIcESaIcEEES4_i+0x1c6>
    6750:	eb 56                	jmp    67a8 <_Z3putNSt7__cxx1112basic_stringIcSt11char_traitsIcESaIcEEES4_i+0x1c1>
    6752:	48 89 c3             	mov    %rax,%rbx
    6755:	48 8d 45 a0          	lea    -0x60(%rbp),%rax
    6759:	48 89 c7             	mov    %rax,%rdi
    675c:	e8 4f e6 ff ff       	callq  4db0 <_ZNSt4pairIKNSt7__cxx1112basic_stringIcSt11char_traitsIcESaIcEEES5_ED1Ev@plt>
    6761:	eb 03                	jmp    6766 <_Z3putNSt7__cxx1112basic_stringIcSt11char_traitsIcESaIcEEES4_i+0x17f>
    6763:	48 89 c3             	mov    %rax,%rbx
    6766:	48 8d 85 60 ff ff ff 	lea    -0xa0(%rbp),%rax
    676d:	48 89 c7             	mov    %rax,%rdi
    6770:	e8 9b e5 ff ff       	callq  4d10 <_ZNSt4pairINSt7__cxx1112basic_stringIcSt11char_traitsIcESaIcEEES5_ED1Ev@plt>
    6775:	eb 03                	jmp    677a <_Z3putNSt7__cxx1112basic_stringIcSt11char_traitsIcESaIcEEES4_i+0x193>
    6777:	48 89 c3             	mov    %rax,%rbx
    677a:	48 8d 85 20 ff ff ff 	lea    -0xe0(%rbp),%rax
    6781:	48 89 c7             	mov    %rax,%rdi
    6784:	e8 27 e4 ff ff       	callq  4bb0 <_ZNSt7__cxx1112basic_stringIcSt11char_traitsIcESaIcEED1Ev@plt>
    6789:	eb 03                	jmp    678e <_Z3putNSt7__cxx1112basic_stringIcSt11char_traitsIcESaIcEEES4_i+0x1a7>
    678b:	48 89 c3             	mov    %rax,%rbx
    678e:	48 8d 85 40 ff ff ff 	lea    -0xc0(%rbp),%rax
    6795:	48 89 c7             	mov    %rax,%rdi
    6798:	e8 13 e4 ff ff       	callq  4bb0 <_ZNSt7__cxx1112basic_stringIcSt11char_traitsIcESaIcEED1Ev@plt>
    679d:	48 89 d8             	mov    %rbx,%rax
    67a0:	48 89 c7             	mov    %rax,%rdi
    67a3:	e8 e8 e7 ff ff       	callq  4f90 <_Unwind_Resume@plt>
    67a8:	e8 13 e6 ff ff       	callq  4dc0 <__stack_chk_fail@plt>
    67ad:	48 81 c4 f8 00 00 00 	add    $0xf8,%rsp
    67b4:	5b                   	pop    %rbx
    67b5:	5d                   	pop    %rbp
    67b6:	c3                   	retq   

00000000000067b7 <_Z41__static_initialization_and_destruction_0ii>:
    67b7:	55                   	push   %rbp
    67b8:	48 89 e5             	mov    %rsp,%rbp
    67bb:	48 83 ec 10          	sub    $0x10,%rsp
    67bf:	89 7d fc             	mov    %edi,-0x4(%rbp)
    67c2:	89 75 f8             	mov    %esi,-0x8(%rbp)
    67c5:	83 7d fc 01          	cmpl   $0x1,-0x4(%rbp)
    67c9:	75 32                	jne    67fd <_Z41__static_initialization_and_destruction_0ii+0x46>
    67cb:	81 7d f8 ff ff 00 00 	cmpl   $0xffff,-0x8(%rbp)
    67d2:	75 29                	jne    67fd <_Z41__static_initialization_and_destruction_0ii+0x46>
    67d4:	48 8d 3d 47 1b 20 00 	lea    0x201b47(%rip),%rdi        # 208322 <_ZStL8__ioinit>
    67db:	e8 b0 e2 ff ff       	callq  4a90 <_ZNSt8ios_base4InitC1Ev@plt>
    67e0:	48 8d 15 29 1b 20 00 	lea    0x201b29(%rip),%rdx        # 208310 <__dso_handle>
    67e7:	48 8d 35 34 1b 20 00 	lea    0x201b34(%rip),%rsi        # 208322 <_ZStL8__ioinit>
    67ee:	48 8b 05 d3 17 20 00 	mov    0x2017d3(%rip),%rax        # 207fc8 <_DYNAMIC+0x1f0>
    67f5:	48 89 c7             	mov    %rax,%rdi
    67f8:	e8 f3 e2 ff ff       	callq  4af0 <__cxa_atexit@plt>
    67fd:	90                   	nop
    67fe:	c9                   	leaveq 
    67ff:	c3                   	retq   

0000000000006800 <_GLOBAL__sub_I_open.cpp>:
    6800:	55                   	push   %rbp
    6801:	48 89 e5             	mov    %rsp,%rbp
    6804:	be ff ff 00 00       	mov    $0xffff,%esi
    6809:	bf 01 00 00 00       	mov    $0x1,%edi
    680e:	e8 a4 ff ff ff       	callq  67b7 <_Z41__static_initialization_and_destruction_0ii>
    6813:	5d                   	pop    %rbp
    6814:	c3                   	retq   
    6815:	90                   	nop

0000000000006816 <_ZNSt4pairINSt7__cxx1112basic_stringIcSt11char_traitsIcESaIcEEES5_ED1Ev>:
    6816:	55                   	push   %rbp
    6817:	48 89 e5             	mov    %rsp,%rbp
    681a:	53                   	push   %rbx
    681b:	48 83 ec 18          	sub    $0x18,%rsp
    681f:	48 89 7d e8          	mov    %rdi,-0x18(%rbp)
    6823:	48 8b 45 e8          	mov    -0x18(%rbp),%rax
    6827:	48 83 c0 20          	add    $0x20,%rax
    682b:	48 89 c7             	mov    %rax,%rdi
    682e:	e8 7d e3 ff ff       	callq  4bb0 <_ZNSt7__cxx1112basic_stringIcSt11char_traitsIcESaIcEED1Ev@plt>
    6833:	48 8b 45 e8          	mov    -0x18(%rbp),%rax
    6837:	48 89 c7             	mov    %rax,%rdi
    683a:	e8 71 e3 ff ff       	callq  4bb0 <_ZNSt7__cxx1112basic_stringIcSt11char_traitsIcESaIcEED1Ev@plt>
    683f:	eb 1a                	jmp    685b <_ZNSt4pairINSt7__cxx1112basic_stringIcSt11char_traitsIcESaIcEEES5_ED1Ev+0x45>
    6841:	48 89 c3             	mov    %rax,%rbx
    6844:	48 8b 45 e8          	mov    -0x18(%rbp),%rax
    6848:	48 89 c7             	mov    %rax,%rdi
    684b:	e8 60 e3 ff ff       	callq  4bb0 <_ZNSt7__cxx1112basic_stringIcSt11char_traitsIcESaIcEED1Ev@plt>
    6850:	48 89 d8             	mov    %rbx,%rax
    6853:	48 89 c7             	mov    %rax,%rdi
    6856:	e8 35 e7 ff ff       	callq  4f90 <_Unwind_Resume@plt>
    685b:	48 83 c4 18          	add    $0x18,%rsp
    685f:	5b                   	pop    %rbx
    6860:	5d                   	pop    %rbp
    6861:	c3                   	retq   

0000000000006862 <_ZSt9make_pairINSt7__cxx1112basic_stringIcSt11char_traitsIcESaIcEEES5_ESt4pairIT_T0_ES7_S8_>:
    6862:	55                   	push   %rbp
    6863:	48 89 e5             	mov    %rsp,%rbp
    6866:	48 83 ec 20          	sub    $0x20,%rsp
    686a:	48 89 7d f8          	mov    %rdi,-0x8(%rbp)
    686e:	48 89 75 f0          	mov    %rsi,-0x10(%rbp)
    6872:	48 89 55 e8          	mov    %rdx,-0x18(%rbp)
    6876:	48 8b 55 e8          	mov    -0x18(%rbp),%rdx
    687a:	48 8b 4d f0          	mov    -0x10(%rbp),%rcx
    687e:	48 8b 45 f8          	mov    -0x8(%rbp),%rax
    6882:	48 89 ce             	mov    %rcx,%rsi
    6885:	48 89 c7             	mov    %rax,%rdi
    6888:	e8 53 e1 ff ff       	callq  49e0 <_ZNSt4pairINSt7__cxx1112basic_stringIcSt11char_traitsIcESaIcEEES5_EC1ERKS5_S8_@plt>
    688d:	48 8b 45 f8          	mov    -0x8(%rbp),%rax
    6891:	c9                   	leaveq 
    6892:	c3                   	retq   
    6893:	90                   	nop

0000000000006894 <_ZNSt4pairIKNSt7__cxx1112basic_stringIcSt11char_traitsIcESaIcEEES5_EC1IS5_S5_EERKS_IT_T0_E>:
    6894:	55                   	push   %rbp
    6895:	48 89 e5             	mov    %rsp,%rbp
    6898:	53                   	push   %rbx
    6899:	48 83 ec 18          	sub    $0x18,%rsp
    689d:	48 89 7d e8          	mov    %rdi,-0x18(%rbp)
    68a1:	48 89 75 e0          	mov    %rsi,-0x20(%rbp)
    68a5:	48 8b 55 e0          	mov    -0x20(%rbp),%rdx
    68a9:	48 8b 45 e8          	mov    -0x18(%rbp),%rax
    68ad:	48 89 d6             	mov    %rdx,%rsi
    68b0:	48 89 c7             	mov    %rax,%rdi
    68b3:	e8 58 e6 ff ff       	callq  4f10 <_ZNSt7__cxx1112basic_stringIcSt11char_traitsIcESaIcEEC1ERKS4_@plt>
    68b8:	48 8b 45 e0          	mov    -0x20(%rbp),%rax
    68bc:	48 8d 50 20          	lea    0x20(%rax),%rdx
    68c0:	48 8b 45 e8          	mov    -0x18(%rbp),%rax
    68c4:	48 83 c0 20          	add    $0x20,%rax
    68c8:	48 89 d6             	mov    %rdx,%rsi
    68cb:	48 89 c7             	mov    %rax,%rdi
    68ce:	e8 3d e6 ff ff       	callq  4f10 <_ZNSt7__cxx1112basic_stringIcSt11char_traitsIcESaIcEEC1ERKS4_@plt>
    68d3:	eb 1a                	jmp    68ef <_ZNSt4pairIKNSt7__cxx1112basic_stringIcSt11char_traitsIcESaIcEEES5_EC1IS5_S5_EERKS_IT_T0_E+0x5b>
    68d5:	48 89 c3             	mov    %rax,%rbx
    68d8:	48 8b 45 e8          	mov    -0x18(%rbp),%rax
    68dc:	48 89 c7             	mov    %rax,%rdi
    68df:	e8 cc e2 ff ff       	callq  4bb0 <_ZNSt7__cxx1112basic_stringIcSt11char_traitsIcESaIcEED1Ev@plt>
    68e4:	48 89 d8             	mov    %rbx,%rax
    68e7:	48 89 c7             	mov    %rax,%rdi
    68ea:	e8 a1 e6 ff ff       	callq  4f90 <_Unwind_Resume@plt>
    68ef:	48 83 c4 18          	add    $0x18,%rsp
    68f3:	5b                   	pop    %rbx
    68f4:	5d                   	pop    %rbp
    68f5:	c3                   	retq   

00000000000068f6 <_ZNSt3mapINSt7__cxx1112basic_stringIcSt11char_traitsIcESaIcEEES5_St4lessIS5_ESaISt4pairIKS5_S5_EEE6insertERKSA_>:
    68f6:	55                   	push   %rbp
    68f7:	48 89 e5             	mov    %rsp,%rbp
    68fa:	48 83 ec 10          	sub    $0x10,%rsp
    68fe:	48 89 7d f8          	mov    %rdi,-0x8(%rbp)
    6902:	48 89 75 f0          	mov    %rsi,-0x10(%rbp)
    6906:	48 8b 45 f8          	mov    -0x8(%rbp),%rax
    690a:	48 8b 55 f0          	mov    -0x10(%rbp),%rdx
    690e:	48 89 d6             	mov    %rdx,%rsi
    6911:	48 89 c7             	mov    %rax,%rdi
    6914:	e8 67 e1 ff ff       	callq  4a80 <_ZNSt8_Rb_treeINSt7__cxx1112basic_stringIcSt11char_traitsIcESaIcEEESt4pairIKS5_S5_ESt10_Select1stIS8_ESt4lessIS5_ESaIS8_EE16_M_insert_uniqueERKS8_@plt>
    6919:	c9                   	leaveq 
    691a:	c3                   	retq   
    691b:	90                   	nop

000000000000691c <_ZNSt4pairINSt7__cxx1112basic_stringIcSt11char_traitsIcESaIcEEES5_EC1ERKS5_S8_>:
    691c:	55                   	push   %rbp
    691d:	48 89 e5             	mov    %rsp,%rbp
    6920:	53                   	push   %rbx
    6921:	48 83 ec 28          	sub    $0x28,%rsp
    6925:	48 89 7d e8          	mov    %rdi,-0x18(%rbp)
    6929:	48 89 75 e0          	mov    %rsi,-0x20(%rbp)
    692d:	48 89 55 d8          	mov    %rdx,-0x28(%rbp)
    6931:	48 8b 45 e8          	mov    -0x18(%rbp),%rax
    6935:	48 8b 55 e0          	mov    -0x20(%rbp),%rdx
    6939:	48 89 d6             	mov    %rdx,%rsi
    693c:	48 89 c7             	mov    %rax,%rdi
    693f:	e8 cc e5 ff ff       	callq  4f10 <_ZNSt7__cxx1112basic_stringIcSt11char_traitsIcESaIcEEC1ERKS4_@plt>
    6944:	48 8b 45 e8          	mov    -0x18(%rbp),%rax
    6948:	48 8d 50 20          	lea    0x20(%rax),%rdx
    694c:	48 8b 45 d8          	mov    -0x28(%rbp),%rax
    6950:	48 89 c6             	mov    %rax,%rsi
    6953:	48 89 d7             	mov    %rdx,%rdi
    6956:	e8 b5 e5 ff ff       	callq  4f10 <_ZNSt7__cxx1112basic_stringIcSt11char_traitsIcESaIcEEC1ERKS4_@plt>
    695b:	eb 1a                	jmp    6977 <_ZNSt4pairINSt7__cxx1112basic_stringIcSt11char_traitsIcESaIcEEES5_EC1ERKS5_S8_+0x5b>
    695d:	48 89 c3             	mov    %rax,%rbx
    6960:	48 8b 45 e8          	mov    -0x18(%rbp),%rax
    6964:	48 89 c7             	mov    %rax,%rdi
    6967:	e8 44 e2 ff ff       	callq  4bb0 <_ZNSt7__cxx1112basic_stringIcSt11char_traitsIcESaIcEED1Ev@plt>
    696c:	48 89 d8             	mov    %rbx,%rax
    696f:	48 89 c7             	mov    %rax,%rdi
    6972:	e8 19 e6 ff ff       	callq  4f90 <_Unwind_Resume@plt>
    6977:	48 83 c4 28          	add    $0x28,%rsp
    697b:	5b                   	pop    %rbx
    697c:	5d                   	pop    %rbp
    697d:	c3                   	retq   

000000000000697e <_ZNSt8_Rb_treeINSt7__cxx1112basic_stringIcSt11char_traitsIcESaIcEEESt4pairIKS5_S5_ESt10_Select1stIS8_ESt4lessIS5_ESaIS8_EE16_M_insert_uniqueERKS8_>:
    697e:	55                   	push   %rbp
    697f:	48 89 e5             	mov    %rsp,%rbp
    6982:	48 83 ec 70          	sub    $0x70,%rsp
    6986:	48 89 7d 98          	mov    %rdi,-0x68(%rbp)
    698a:	48 89 75 90          	mov    %rsi,-0x70(%rbp)
    698e:	64 48 8b 04 25 28 00 	mov    %fs:0x28,%rax
    6995:	00 00 
    6997:	48 89 45 f8          	mov    %rax,-0x8(%rbp)
    699b:	31 c0                	xor    %eax,%eax
    699d:	48 8b 55 90          	mov    -0x70(%rbp),%rdx
    69a1:	48 8d 45 e0          	lea    -0x20(%rbp),%rax
    69a5:	48 89 d6             	mov    %rdx,%rsi
    69a8:	48 89 c7             	mov    %rax,%rdi
    69ab:	e8 90 e3 ff ff       	callq  4d40 <_ZNKSt10_Select1stISt4pairIKNSt7__cxx1112basic_stringIcSt11char_traitsIcESaIcEEES6_EEclERKS8_@plt>
    69b0:	48 89 c2             	mov    %rax,%rdx
    69b3:	48 8b 45 98          	mov    -0x68(%rbp),%rax
    69b7:	48 89 d6             	mov    %rdx,%rsi
    69ba:	48 89 c7             	mov    %rax,%rdi
    69bd:	e8 7e e4 ff ff       	callq  4e40 <_ZNSt8_Rb_treeINSt7__cxx1112basic_stringIcSt11char_traitsIcESaIcEEESt4pairIKS5_S5_ESt10_Select1stIS8_ESt4lessIS5_ESaIS8_EE24_M_get_insert_unique_posERS7_@plt>
    69c2:	48 89 45 d0          	mov    %rax,-0x30(%rbp)
    69c6:	48 89 55 d8          	mov    %rdx,-0x28(%rbp)
    69ca:	48 8b 45 d8          	mov    -0x28(%rbp),%rax
    69ce:	48 85 c0             	test   %rax,%rax
    69d1:	74 5b                	je     6a2e <_ZNSt8_Rb_treeINSt7__cxx1112basic_stringIcSt11char_traitsIcESaIcEEESt4pairIKS5_S5_ESt10_Select1stIS8_ESt4lessIS5_ESaIS8_EE16_M_insert_uniqueERKS8_+0xb0>
    69d3:	48 8b 55 98          	mov    -0x68(%rbp),%rdx
    69d7:	48 8d 45 b0          	lea    -0x50(%rbp),%rax
    69db:	48 89 d6             	mov    %rdx,%rsi
    69de:	48 89 c7             	mov    %rax,%rdi
    69e1:	e8 1a e2 ff ff       	callq  4c00 <_ZNSt8_Rb_treeINSt7__cxx1112basic_stringIcSt11char_traitsIcESaIcEEESt4pairIKS5_S5_ESt10_Select1stIS8_ESt4lessIS5_ESaIS8_EE11_Alloc_nodeC1ERSE_@plt>
    69e6:	c6 45 af 01          	movb   $0x1,-0x51(%rbp)
    69ea:	48 8b 55 d8          	mov    -0x28(%rbp),%rdx
    69ee:	48 8b 75 d0          	mov    -0x30(%rbp),%rsi
    69f2:	48 8d 7d b0          	lea    -0x50(%rbp),%rdi
    69f6:	48 8b 4d 90          	mov    -0x70(%rbp),%rcx
    69fa:	48 8b 45 98          	mov    -0x68(%rbp),%rax
    69fe:	49 89 f8             	mov    %rdi,%r8
    6a01:	48 89 c7             	mov    %rax,%rdi
    6a04:	e8 07 e1 ff ff       	callq  4b10 <_ZNSt8_Rb_treeINSt7__cxx1112basic_stringIcSt11char_traitsIcESaIcEEESt4pairIKS5_S5_ESt10_Select1stIS8_ESt4lessIS5_ESaIS8_EE10_M_insert_INSE_11_Alloc_nodeEEESt17_Rb_tree_iteratorIS8_EPSt18_Rb_tree_node_baseSK_RKS8_RT_@plt>
    6a09:	48 89 45 c0          	mov    %rax,-0x40(%rbp)
    6a0d:	48 8d 55 af          	lea    -0x51(%rbp),%rdx
    6a11:	48 8d 4d c0          	lea    -0x40(%rbp),%rcx
    6a15:	48 8d 45 e0          	lea    -0x20(%rbp),%rax
    6a19:	48 89 ce             	mov    %rcx,%rsi
    6a1c:	48 89 c7             	mov    %rax,%rdi
    6a1f:	e8 ac e4 ff ff       	callq  4ed0 <_ZNSt4pairISt17_Rb_tree_iteratorIS_IKNSt7__cxx1112basic_stringIcSt11char_traitsIcESaIcEEES6_EEbEC1ERKS9_RKb@plt>
    6a24:	48 8b 45 e0          	mov    -0x20(%rbp),%rax
    6a28:	48 8b 55 e8          	mov    -0x18(%rbp),%rdx
    6a2c:	eb 36                	jmp    6a64 <_ZNSt8_Rb_treeINSt7__cxx1112basic_stringIcSt11char_traitsIcESaIcEEESt4pairIKS5_S5_ESt10_Select1stIS8_ESt4lessIS5_ESaIS8_EE16_M_insert_uniqueERKS8_+0xe6>
    6a2e:	c6 45 b0 00          	movb   $0x0,-0x50(%rbp)
    6a32:	48 8b 55 d0          	mov    -0x30(%rbp),%rdx
    6a36:	48 8d 45 c0          	lea    -0x40(%rbp),%rax
    6a3a:	48 89 d6             	mov    %rdx,%rsi
    6a3d:	48 89 c7             	mov    %rax,%rdi
    6a40:	e8 8b e0 ff ff       	callq  4ad0 <_ZNSt17_Rb_tree_iteratorISt4pairIKNSt7__cxx1112basic_stringIcSt11char_traitsIcESaIcEEES6_EEC1EPSt18_Rb_tree_node_base@plt>
    6a45:	48 8d 55 b0          	lea    -0x50(%rbp),%rdx
    6a49:	48 8d 4d c0          	lea    -0x40(%rbp),%rcx
    6a4d:	48 8d 45 e0          	lea    -0x20(%rbp),%rax
    6a51:	48 89 ce             	mov    %rcx,%rsi
    6a54:	48 89 c7             	mov    %rax,%rdi
    6a57:	e8 74 e4 ff ff       	callq  4ed0 <_ZNSt4pairISt17_Rb_tree_iteratorIS_IKNSt7__cxx1112basic_stringIcSt11char_traitsIcESaIcEEES6_EEbEC1ERKS9_RKb@plt>
    6a5c:	48 8b 45 e0          	mov    -0x20(%rbp),%rax
    6a60:	48 8b 55 e8          	mov    -0x18(%rbp),%rdx
    6a64:	48 8b 4d f8          	mov    -0x8(%rbp),%rcx
    6a68:	64 48 33 0c 25 28 00 	xor    %fs:0x28,%rcx
    6a6f:	00 00 
    6a71:	74 05                	je     6a78 <_ZNSt8_Rb_treeINSt7__cxx1112basic_stringIcSt11char_traitsIcESaIcEEESt4pairIKS5_S5_ESt10_Select1stIS8_ESt4lessIS5_ESaIS8_EE16_M_insert_uniqueERKS8_+0xfa>
    6a73:	e8 48 e3 ff ff       	callq  4dc0 <__stack_chk_fail@plt>
    6a78:	c9                   	leaveq 
    6a79:	c3                   	retq   

0000000000006a7a <_ZNSt4pairISt17_Rb_tree_iteratorIS_IKNSt7__cxx1112basic_stringIcSt11char_traitsIcESaIcEEES6_EEbEC1ERKS9_RKb>:
    6a7a:	55                   	push   %rbp
    6a7b:	48 89 e5             	mov    %rsp,%rbp
    6a7e:	48 89 7d f8          	mov    %rdi,-0x8(%rbp)
    6a82:	48 89 75 f0          	mov    %rsi,-0x10(%rbp)
    6a86:	48 89 55 e8          	mov    %rdx,-0x18(%rbp)
    6a8a:	48 8b 45 f8          	mov    -0x8(%rbp),%rax
    6a8e:	48 8b 55 f0          	mov    -0x10(%rbp),%rdx
    6a92:	48 8b 12             	mov    (%rdx),%rdx
    6a95:	48 89 10             	mov    %rdx,(%rax)
    6a98:	48 8b 45 e8          	mov    -0x18(%rbp),%rax
    6a9c:	0f b6 10             	movzbl (%rax),%edx
    6a9f:	48 8b 45 f8          	mov    -0x8(%rbp),%rax
    6aa3:	88 50 08             	mov    %dl,0x8(%rax)
    6aa6:	90                   	nop
    6aa7:	5d                   	pop    %rbp
    6aa8:	c3                   	retq   

Disassembly of section .fini:

0000000000006aac <_fini>:
    6aac:	48 83 ec 08          	sub    $0x8,%rsp
    6ab0:	48 83 c4 08          	add    $0x8,%rsp
    6ab4:	c3                   	retq   
